
main.elf:     file format elf32-littleriscv


Disassembly of section .text:

00000000 <_isr_handler>:
       0:	0080006f          	j	8 <_isr_routine>
       4:	1440006f          	j	148 <_start>

00000008 <_isr_routine>:
       8:	f8010113          	addi	sp,sp,-128
       c:	00112023          	sw	ra,0(sp)
      10:	00312423          	sw	gp,8(sp)
      14:	00412623          	sw	tp,12(sp)
      18:	00512823          	sw	t0,16(sp)
      1c:	00612a23          	sw	t1,20(sp)
      20:	00712c23          	sw	t2,24(sp)
      24:	00812e23          	sw	s0,28(sp)
      28:	02912023          	sw	s1,32(sp)
      2c:	02a12223          	sw	a0,36(sp)
      30:	02b12423          	sw	a1,40(sp)
      34:	02c12623          	sw	a2,44(sp)
      38:	02d12823          	sw	a3,48(sp)
      3c:	02e12a23          	sw	a4,52(sp)
      40:	02f12c23          	sw	a5,56(sp)
      44:	03012e23          	sw	a6,60(sp)
      48:	05112023          	sw	a7,64(sp)
      4c:	05212223          	sw	s2,68(sp)
      50:	05312423          	sw	s3,72(sp)
      54:	05412623          	sw	s4,76(sp)
      58:	05512823          	sw	s5,80(sp)
      5c:	05612a23          	sw	s6,84(sp)
      60:	05712c23          	sw	s7,88(sp)
      64:	05812e23          	sw	s8,92(sp)
      68:	07912023          	sw	s9,96(sp)
      6c:	07a12223          	sw	s10,100(sp)
      70:	07b12423          	sw	s11,104(sp)
      74:	07c12623          	sw	t3,108(sp)
      78:	07d12823          	sw	t4,112(sp)
      7c:	07e12a23          	sw	t5,116(sp)
      80:	07f12c23          	sw	t6,120(sp)
      84:	342022f3          	csrr	t0,mcause
      88:	80000337          	lui	t1,0x80000
      8c:	02536463          	bltu	t1,t0,b4 <external_irq>
      90:	00028833          	add	a6,t0,zero
      94:	00b00313          	li	t1,11
      98:	00628463          	beq	t0,t1,a0 <skip_init_args>
      9c:	34102573          	csrr	a0,mepc

000000a0 <skip_init_args>:
      a0:	7f9000ef          	jal	1098 <handle_exception>
      a4:	341022f3          	csrr	t0,mepc
      a8:	00428293          	addi	t0,t0,4
      ac:	34129073          	csrw	mepc,t0
      b0:	0180006f          	j	c8 <restore>

000000b4 <external_irq>:
      b4:	800002b7          	lui	t0,0x80000
      b8:	fff28293          	addi	t0,t0,-1 # 7fffffff <_stack_end+0x7fefca97>
      bc:	34202373          	csrr	t1,mcause
      c0:	0062f533          	and	a0,t0,t1
      c4:	531000ef          	jal	df4 <handle_interrupt>

000000c8 <restore>:
      c8:	00012083          	lw	ra,0(sp)
      cc:	00812183          	lw	gp,8(sp)
      d0:	00c12203          	lw	tp,12(sp)
      d4:	01012283          	lw	t0,16(sp)
      d8:	01412303          	lw	t1,20(sp)
      dc:	01812383          	lw	t2,24(sp)
      e0:	01c12403          	lw	s0,28(sp)
      e4:	02012483          	lw	s1,32(sp)
      e8:	02412503          	lw	a0,36(sp)
      ec:	02812583          	lw	a1,40(sp)
      f0:	02c12603          	lw	a2,44(sp)
      f4:	03012683          	lw	a3,48(sp)
      f8:	03412703          	lw	a4,52(sp)
      fc:	03812783          	lw	a5,56(sp)
     100:	03c12803          	lw	a6,60(sp)
     104:	04012883          	lw	a7,64(sp)
     108:	04412903          	lw	s2,68(sp)
     10c:	04812983          	lw	s3,72(sp)
     110:	04c12a03          	lw	s4,76(sp)
     114:	05012a83          	lw	s5,80(sp)
     118:	05412b03          	lw	s6,84(sp)
     11c:	05812b83          	lw	s7,88(sp)
     120:	05c12c03          	lw	s8,92(sp)
     124:	06012c83          	lw	s9,96(sp)
     128:	06412d03          	lw	s10,100(sp)
     12c:	06812d83          	lw	s11,104(sp)
     130:	06c12e03          	lw	t3,108(sp)
     134:	07012e83          	lw	t4,112(sp)
     138:	07412f03          	lw	t5,116(sp)
     13c:	07812f83          	lw	t6,120(sp)
     140:	08010113          	addi	sp,sp,128
     144:	30200073          	mret

00000148 <_start>:
     148:	30401073          	csrw	mie,zero
     14c:	00103117          	auipc	sp,0x103
     150:	41c10113          	addi	sp,sp,1052 # 103568 <_stack_end>
     154:	00004197          	auipc	gp,0x4
     158:	9f118193          	addi	gp,gp,-1551 # 3b45 <__global_pointer>
     15c:	00003517          	auipc	a0,0x3
     160:	11050513          	addi	a0,a0,272 # 326c <welcome_msg>
     164:	00400893          	li	a7,4
     168:	00000073          	ecall
     16c:	579000ef          	jal	ee4 <main>

00000170 <loop>:
     170:	0000006f          	j	170 <loop>

00000174 <enable_interrupt>:
     174:	3001e073          	csrsi	mstatus,3
     178:	30486073          	csrsi	mie,16
     17c:	30496073          	csrsi	mie,18
     180:	00008067          	ret

00000184 <draw_square>:
     184:	00001737          	lui	a4,0x1
     188:	00259793          	slli	a5,a1,0x2
     18c:	f6470713          	addi	a4,a4,-156 # f64 <print+0x14>
     190:	00b785b3          	add	a1,a5,a1
     194:	06450793          	addi	a5,a0,100
     198:	00e50533          	add	a0,a0,a4
     19c:	00003737          	lui	a4,0x3
     1a0:	00659593          	slli	a1,a1,0x6
     1a4:	00261613          	slli	a2,a2,0x2
     1a8:	30070713          	addi	a4,a4,768 # 3300 <colorList>
     1ac:	00b787b3          	add	a5,a5,a1
     1b0:	000036b7          	lui	a3,0x3
     1b4:	00a585b3          	add	a1,a1,a0
     1b8:	00c70733          	add	a4,a4,a2
     1bc:	3486a603          	lw	a2,840(a3) # 3348 <screenbuffer>
     1c0:	00074503          	lbu	a0,0(a4)
     1c4:	00178813          	addi	a6,a5,1
     1c8:	00f60633          	add	a2,a2,a5
     1cc:	00a60023          	sb	a0,0(a2)
     1d0:	3486a603          	lw	a2,840(a3)
     1d4:	00074503          	lbu	a0,0(a4)
     1d8:	00278893          	addi	a7,a5,2
     1dc:	01060633          	add	a2,a2,a6
     1e0:	00a60023          	sb	a0,0(a2)
     1e4:	3486a603          	lw	a2,840(a3)
     1e8:	00074503          	lbu	a0,0(a4)
     1ec:	00378813          	addi	a6,a5,3
     1f0:	01160633          	add	a2,a2,a7
     1f4:	00a60023          	sb	a0,0(a2)
     1f8:	3486a603          	lw	a2,840(a3)
     1fc:	00074503          	lbu	a0,0(a4)
     200:	00478893          	addi	a7,a5,4
     204:	01060633          	add	a2,a2,a6
     208:	00a60023          	sb	a0,0(a2)
     20c:	3486a603          	lw	a2,840(a3)
     210:	00074503          	lbu	a0,0(a4)
     214:	00578813          	addi	a6,a5,5
     218:	01160633          	add	a2,a2,a7
     21c:	00a60023          	sb	a0,0(a2)
     220:	3486a603          	lw	a2,840(a3)
     224:	00074503          	lbu	a0,0(a4)
     228:	00678893          	addi	a7,a5,6
     22c:	01060633          	add	a2,a2,a6
     230:	00a60023          	sb	a0,0(a2)
     234:	3486a603          	lw	a2,840(a3)
     238:	00074503          	lbu	a0,0(a4)
     23c:	00778813          	addi	a6,a5,7
     240:	01160633          	add	a2,a2,a7
     244:	00a60023          	sb	a0,0(a2)
     248:	3486a603          	lw	a2,840(a3)
     24c:	00074503          	lbu	a0,0(a4)
     250:	00878893          	addi	a7,a5,8
     254:	01060633          	add	a2,a2,a6
     258:	00a60023          	sb	a0,0(a2)
     25c:	3486a603          	lw	a2,840(a3)
     260:	00074503          	lbu	a0,0(a4)
     264:	00978813          	addi	a6,a5,9
     268:	01160633          	add	a2,a2,a7
     26c:	00a60023          	sb	a0,0(a2)
     270:	3486a603          	lw	a2,840(a3)
     274:	00074503          	lbu	a0,0(a4)
     278:	00a78893          	addi	a7,a5,10
     27c:	01060633          	add	a2,a2,a6
     280:	00a60023          	sb	a0,0(a2)
     284:	3486a603          	lw	a2,840(a3)
     288:	00074503          	lbu	a0,0(a4)
     28c:	00b78813          	addi	a6,a5,11
     290:	01160633          	add	a2,a2,a7
     294:	00a60023          	sb	a0,0(a2)
     298:	3486a603          	lw	a2,840(a3)
     29c:	00074503          	lbu	a0,0(a4)
     2a0:	14078793          	addi	a5,a5,320
     2a4:	01060633          	add	a2,a2,a6
     2a8:	00a60023          	sb	a0,0(a2)
     2ac:	f0f598e3          	bne	a1,a5,1bc <draw_square+0x38>
     2b0:	00008067          	ret

000002b4 <to_screen>:
     2b4:	00003e37          	lui	t3,0x3
     2b8:	ff010113          	addi	sp,sp,-16
     2bc:	350e0e13          	addi	t3,t3,848 # 3350 <grid>
     2c0:	00001fb7          	lui	t6,0x1
     2c4:	fffff8b7          	lui	a7,0xfffff
     2c8:	00001f37          	lui	t5,0x1
     2cc:	00003337          	lui	t1,0x3
     2d0:	00812623          	sw	s0,12(sp)
     2d4:	00912423          	sw	s1,8(sp)
     2d8:	01212223          	sw	s2,4(sp)
     2dc:	0c8e0393          	addi	t2,t3,200
     2e0:	00000293          	li	t0,0
     2e4:	000036b7          	lui	a3,0x3
     2e8:	30030313          	addi	t1,t1,768 # 3300 <colorList>
     2ec:	f64f8f93          	addi	t6,t6,-156 # f64 <print+0x14>
     2f0:	10088893          	addi	a7,a7,256 # fffff100 <_stack_end+0xffefbb98>
     2f4:	0dc00e93          	li	t4,220
     2f8:	f00f0f13          	addi	t5,t5,-256 # f00 <main+0x1c>
     2fc:	01f285b3          	add	a1,t0,t6
     300:	000e0813          	mv	a6,t3
     304:	06400513          	li	a0,100
     308:	00084703          	lbu	a4,0(a6)
     30c:	011587b3          	add	a5,a1,a7
     310:	00271713          	slli	a4,a4,0x2
     314:	00e30733          	add	a4,t1,a4
     318:	3486a603          	lw	a2,840(a3) # 3348 <screenbuffer>
     31c:	00074403          	lbu	s0,0(a4)
     320:	00178493          	addi	s1,a5,1
     324:	00f60633          	add	a2,a2,a5
     328:	00860023          	sb	s0,0(a2)
     32c:	3486a603          	lw	a2,840(a3)
     330:	00074403          	lbu	s0,0(a4)
     334:	00278913          	addi	s2,a5,2
     338:	00960633          	add	a2,a2,s1
     33c:	00860023          	sb	s0,0(a2)
     340:	3486a603          	lw	a2,840(a3)
     344:	00074403          	lbu	s0,0(a4)
     348:	00378493          	addi	s1,a5,3
     34c:	01260633          	add	a2,a2,s2
     350:	00860023          	sb	s0,0(a2)
     354:	3486a603          	lw	a2,840(a3)
     358:	00074403          	lbu	s0,0(a4)
     35c:	00478913          	addi	s2,a5,4
     360:	00960633          	add	a2,a2,s1
     364:	00860023          	sb	s0,0(a2)
     368:	3486a603          	lw	a2,840(a3)
     36c:	00074403          	lbu	s0,0(a4)
     370:	00578493          	addi	s1,a5,5
     374:	01260633          	add	a2,a2,s2
     378:	00860023          	sb	s0,0(a2)
     37c:	3486a603          	lw	a2,840(a3)
     380:	00074403          	lbu	s0,0(a4)
     384:	00678913          	addi	s2,a5,6
     388:	00960633          	add	a2,a2,s1
     38c:	00860023          	sb	s0,0(a2)
     390:	3486a603          	lw	a2,840(a3)
     394:	00074403          	lbu	s0,0(a4)
     398:	00778493          	addi	s1,a5,7
     39c:	01260633          	add	a2,a2,s2
     3a0:	00860023          	sb	s0,0(a2)
     3a4:	3486a603          	lw	a2,840(a3)
     3a8:	00074403          	lbu	s0,0(a4)
     3ac:	00878913          	addi	s2,a5,8
     3b0:	00960633          	add	a2,a2,s1
     3b4:	00860023          	sb	s0,0(a2)
     3b8:	3486a603          	lw	a2,840(a3)
     3bc:	00074403          	lbu	s0,0(a4)
     3c0:	00978493          	addi	s1,a5,9
     3c4:	01260633          	add	a2,a2,s2
     3c8:	00860023          	sb	s0,0(a2)
     3cc:	3486a603          	lw	a2,840(a3)
     3d0:	00074403          	lbu	s0,0(a4)
     3d4:	00a78913          	addi	s2,a5,10
     3d8:	00960633          	add	a2,a2,s1
     3dc:	00860023          	sb	s0,0(a2)
     3e0:	3486a603          	lw	a2,840(a3)
     3e4:	00074403          	lbu	s0,0(a4)
     3e8:	00b78493          	addi	s1,a5,11
     3ec:	01260633          	add	a2,a2,s2
     3f0:	00860023          	sb	s0,0(a2)
     3f4:	3486a603          	lw	a2,840(a3)
     3f8:	00074403          	lbu	s0,0(a4)
     3fc:	14078793          	addi	a5,a5,320
     400:	00960633          	add	a2,a2,s1
     404:	00860023          	sb	s0,0(a2)
     408:	f0f598e3          	bne	a1,a5,318 <to_screen+0x64>
     40c:	00c50513          	addi	a0,a0,12
     410:	00180813          	addi	a6,a6,1
     414:	00c58593          	addi	a1,a1,12
     418:	efd518e3          	bne	a0,t4,308 <to_screen+0x54>
     41c:	00ae0e13          	addi	t3,t3,10
     420:	01e282b3          	add	t0,t0,t5
     424:	edc39ce3          	bne	t2,t3,2fc <to_screen+0x48>
     428:	00c12403          	lw	s0,12(sp)
     42c:	00812483          	lw	s1,8(sp)
     430:	00412903          	lw	s2,4(sp)
     434:	01010113          	addi	sp,sp,16
     438:	00008067          	ret

0000043c <reset_screen>:
     43c:	000136b7          	lui	a3,0x13
     440:	00000793          	li	a5,0
     444:	00003637          	lui	a2,0x3
     448:	c0068693          	addi	a3,a3,-1024 # 12c00 <__global_pointer+0xf0bb>
     44c:	34862703          	lw	a4,840(a2) # 3348 <screenbuffer>
     450:	00f70733          	add	a4,a4,a5
     454:	00070023          	sb	zero,0(a4)
     458:	00178793          	addi	a5,a5,1
     45c:	fed798e3          	bne	a5,a3,44c <reset_screen+0x10>
     460:	00008067          	ret

00000464 <draw_outline>:
     464:	000138b7          	lui	a7,0x13
     468:	06300793          	li	a5,99
     46c:	000036b7          	lui	a3,0x3
     470:	fff00713          	li	a4,-1
     474:	c6388893          	addi	a7,a7,-925 # 12c63 <__global_pointer+0xf11e>
     478:	3486a603          	lw	a2,840(a3) # 3348 <screenbuffer>
     47c:	fff78813          	addi	a6,a5,-1
     480:	07978513          	addi	a0,a5,121
     484:	00f60633          	add	a2,a2,a5
     488:	00e60023          	sb	a4,0(a2)
     48c:	3486a603          	lw	a2,840(a3)
     490:	07a78593          	addi	a1,a5,122
     494:	14078793          	addi	a5,a5,320
     498:	01060633          	add	a2,a2,a6
     49c:	00e60023          	sb	a4,0(a2)
     4a0:	3486a603          	lw	a2,840(a3)
     4a4:	00a60633          	add	a2,a2,a0
     4a8:	00e60023          	sb	a4,0(a2)
     4ac:	3486a603          	lw	a2,840(a3)
     4b0:	00b60633          	add	a2,a2,a1
     4b4:	00e60023          	sb	a4,0(a2)
     4b8:	fd1790e3          	bne	a5,a7,478 <draw_outline+0x14>
     4bc:	00008067          	ret

000004c0 <draw_cell>:
     4c0:	00159713          	slli	a4,a1,0x1
     4c4:	00151793          	slli	a5,a0,0x1
     4c8:	00a787b3          	add	a5,a5,a0
     4cc:	00b70533          	add	a0,a4,a1
     4d0:	00279793          	slli	a5,a5,0x2
     4d4:	00251513          	slli	a0,a0,0x2
     4d8:	00060693          	mv	a3,a2
     4dc:	00700713          	li	a4,7
     4e0:	00078593          	mv	a1,a5
     4e4:	00050613          	mv	a2,a0
     4e8:	1ad76a63          	bltu	a4,a3,69c <draw_cell+0x1dc>
     4ec:	00003737          	lui	a4,0x3
     4f0:	30070713          	addi	a4,a4,768 # 3300 <colorList>
     4f4:	00269693          	slli	a3,a3,0x2
     4f8:	00d70733          	add	a4,a4,a3
     4fc:	00075703          	lhu	a4,0(a4)
     500:	1a07c463          	bltz	a5,6a8 <draw_cell+0x1e8>
     504:	13f00693          	li	a3,319
     508:	1a054a63          	bltz	a0,6bc <draw_cell+0x1fc>
     50c:	1af6c663          	blt	a3,a5,6b8 <draw_cell+0x1f8>
     510:	0ef00693          	li	a3,239
     514:	1aa6c263          	blt	a3,a0,6b8 <draw_cell+0x1f8>
     518:	13500813          	li	a6,309
     51c:	00b50693          	addi	a3,a0,11
     520:	1ef85663          	bge	a6,a5,70c <draw_cell+0x24c>
     524:	14000893          	li	a7,320
     528:	0f000813          	li	a6,240
     52c:	40f887b3          	sub	a5,a7,a5
     530:	1cd85a63          	bge	a6,a3,704 <draw_cell+0x244>
     534:	0f000693          	li	a3,240
     538:	40a68533          	sub	a0,a3,a0
     53c:	00271313          	slli	t1,a4,0x2
     540:	00261813          	slli	a6,a2,0x2
     544:	00e30333          	add	t1,t1,a4
     548:	00c80833          	add	a6,a6,a2
     54c:	00003737          	lui	a4,0x3
     550:	00001e37          	lui	t3,0x1
     554:	00681813          	slli	a6,a6,0x6
     558:	00631313          	slli	t1,t1,0x6
     55c:	30070713          	addi	a4,a4,768 # 3300 <colorList>
     560:	00279793          	slli	a5,a5,0x2
     564:	f64e0e13          	addi	t3,t3,-156 # f64 <print+0x14>
     568:	00b80833          	add	a6,a6,a1
     56c:	00000893          	li	a7,0
     570:	000036b7          	lui	a3,0x3
     574:	01c30e33          	add	t3,t1,t3
     578:	00f70733          	add	a4,a4,a5
     57c:	3486a603          	lw	a2,840(a3) # 3348 <screenbuffer>
     580:	010607b3          	add	a5,a2,a6
     584:	0007c583          	lbu	a1,0(a5)
     588:	06458793          	addi	a5,a1,100
     58c:	006787b3          	add	a5,a5,t1
     590:	00be05b3          	add	a1,t3,a1
     594:	0080006f          	j	59c <draw_cell+0xdc>
     598:	3486a603          	lw	a2,840(a3)
     59c:	00074e83          	lbu	t4,0(a4)
     5a0:	00f60633          	add	a2,a2,a5
     5a4:	00178f13          	addi	t5,a5,1
     5a8:	01d60023          	sb	t4,0(a2)
     5ac:	3486a603          	lw	a2,840(a3)
     5b0:	00074e83          	lbu	t4,0(a4)
     5b4:	00278f93          	addi	t6,a5,2
     5b8:	01e60633          	add	a2,a2,t5
     5bc:	01d60023          	sb	t4,0(a2)
     5c0:	3486a603          	lw	a2,840(a3)
     5c4:	00074e83          	lbu	t4,0(a4)
     5c8:	00378f13          	addi	t5,a5,3
     5cc:	01f60633          	add	a2,a2,t6
     5d0:	01d60023          	sb	t4,0(a2)
     5d4:	3486a603          	lw	a2,840(a3)
     5d8:	00074e83          	lbu	t4,0(a4)
     5dc:	00478f93          	addi	t6,a5,4
     5e0:	01e60633          	add	a2,a2,t5
     5e4:	01d60023          	sb	t4,0(a2)
     5e8:	3486a603          	lw	a2,840(a3)
     5ec:	00074e83          	lbu	t4,0(a4)
     5f0:	00578f13          	addi	t5,a5,5
     5f4:	01f60633          	add	a2,a2,t6
     5f8:	01d60023          	sb	t4,0(a2)
     5fc:	3486a603          	lw	a2,840(a3)
     600:	00074e83          	lbu	t4,0(a4)
     604:	00678f93          	addi	t6,a5,6
     608:	01e60633          	add	a2,a2,t5
     60c:	01d60023          	sb	t4,0(a2)
     610:	3486a603          	lw	a2,840(a3)
     614:	00074e83          	lbu	t4,0(a4)
     618:	00778f13          	addi	t5,a5,7
     61c:	01f60633          	add	a2,a2,t6
     620:	01d60023          	sb	t4,0(a2)
     624:	3486a603          	lw	a2,840(a3)
     628:	00074e83          	lbu	t4,0(a4)
     62c:	00878f93          	addi	t6,a5,8
     630:	01e60633          	add	a2,a2,t5
     634:	01d60023          	sb	t4,0(a2)
     638:	3486a603          	lw	a2,840(a3)
     63c:	00074e83          	lbu	t4,0(a4)
     640:	00978f13          	addi	t5,a5,9
     644:	01f60633          	add	a2,a2,t6
     648:	01d60023          	sb	t4,0(a2)
     64c:	3486a603          	lw	a2,840(a3)
     650:	00074e83          	lbu	t4,0(a4)
     654:	00a78f93          	addi	t6,a5,10
     658:	01e60633          	add	a2,a2,t5
     65c:	01d60023          	sb	t4,0(a2)
     660:	3486a603          	lw	a2,840(a3)
     664:	00074e83          	lbu	t4,0(a4)
     668:	00b78f13          	addi	t5,a5,11
     66c:	01f60633          	add	a2,a2,t6
     670:	01d60023          	sb	t4,0(a2)
     674:	3486a603          	lw	a2,840(a3)
     678:	00074e83          	lbu	t4,0(a4)
     67c:	14078793          	addi	a5,a5,320
     680:	01e60633          	add	a2,a2,t5
     684:	01d60023          	sb	t4,0(a2)
     688:	f0f598e3          	bne	a1,a5,598 <draw_cell+0xd8>
     68c:	00188893          	addi	a7,a7,1
     690:	14080813          	addi	a6,a6,320
     694:	eea8c4e3          	blt	a7,a0,57c <draw_cell+0xbc>
     698:	00008067          	ret
     69c:	00010737          	lui	a4,0x10
     6a0:	fff70713          	addi	a4,a4,-1 # ffff <__global_pointer+0xc4ba>
     6a4:	e607d0e3          	bgez	a5,504 <draw_cell+0x44>
     6a8:	00b78793          	addi	a5,a5,11
     6ac:	02054a63          	bltz	a0,6e0 <draw_cell+0x220>
     6b0:	0ef00693          	li	a3,239
     6b4:	04a6d063          	bge	a3,a0,6f4 <draw_cell+0x234>
     6b8:	00008067          	ret
     6bc:	fef6cee3          	blt	a3,a5,6b8 <draw_cell+0x1f8>
     6c0:	13500693          	li	a3,309
     6c4:	00b50513          	addi	a0,a0,11
     6c8:	04f6d663          	bge	a3,a5,714 <draw_cell+0x254>
     6cc:	14000693          	li	a3,320
     6d0:	40f687b3          	sub	a5,a3,a5
     6d4:	00000613          	li	a2,0
     6d8:	e6a042e3          	bgtz	a0,53c <draw_cell+0x7c>
     6dc:	00008067          	ret
     6e0:	00b50513          	addi	a0,a0,11
     6e4:	00000593          	li	a1,0
     6e8:	00000613          	li	a2,0
     6ec:	e4a048e3          	bgtz	a0,53c <draw_cell+0x7c>
     6f0:	00008067          	ret
     6f4:	00b50693          	addi	a3,a0,11
     6f8:	00000593          	li	a1,0
     6fc:	0f000813          	li	a6,240
     700:	e2d84ae3          	blt	a6,a3,534 <draw_cell+0x74>
     704:	00b00513          	li	a0,11
     708:	e35ff06f          	j	53c <draw_cell+0x7c>
     70c:	00b00793          	li	a5,11
     710:	fedff06f          	j	6fc <draw_cell+0x23c>
     714:	00000613          	li	a2,0
     718:	00b00793          	li	a5,11
     71c:	e2a040e3          	bgtz	a0,53c <draw_cell+0x7c>
     720:	00008067          	ret

00000724 <setup_screen>:
     724:	00013637          	lui	a2,0x13
     728:	00000793          	li	a5,0
     72c:	00003737          	lui	a4,0x3
     730:	c0060613          	addi	a2,a2,-1024 # 12c00 <__global_pointer+0xf0bb>
     734:	34872683          	lw	a3,840(a4) # 3348 <screenbuffer>
     738:	00f686b3          	add	a3,a3,a5
     73c:	00068023          	sb	zero,0(a3)
     740:	00178793          	addi	a5,a5,1
     744:	fec798e3          	bne	a5,a2,734 <setup_screen+0x10>
     748:	000138b7          	lui	a7,0x13
     74c:	06300793          	li	a5,99
     750:	fff00693          	li	a3,-1
     754:	c6388893          	addi	a7,a7,-925 # 12c63 <__global_pointer+0xf11e>
     758:	34872603          	lw	a2,840(a4)
     75c:	fff78813          	addi	a6,a5,-1
     760:	07978513          	addi	a0,a5,121
     764:	00f60633          	add	a2,a2,a5
     768:	00d60023          	sb	a3,0(a2)
     76c:	34872603          	lw	a2,840(a4)
     770:	07a78593          	addi	a1,a5,122
     774:	14078793          	addi	a5,a5,320
     778:	01060633          	add	a2,a2,a6
     77c:	00d60023          	sb	a3,0(a2)
     780:	34872603          	lw	a2,840(a4)
     784:	00a60633          	add	a2,a2,a0
     788:	00d60023          	sb	a3,0(a2)
     78c:	34872603          	lw	a2,840(a4)
     790:	00b60633          	add	a2,a2,a1
     794:	00d60023          	sb	a3,0(a2)
     798:	fd1790e3          	bne	a5,a7,758 <setup_screen+0x34>
     79c:	00008067          	ret

000007a0 <grid_clear>:
     7a0:	000037b7          	lui	a5,0x3
     7a4:	35078793          	addi	a5,a5,848 # 3350 <grid>
     7a8:	0007a023          	sw	zero,0(a5)
     7ac:	0007a223          	sw	zero,4(a5)
     7b0:	0007a423          	sw	zero,8(a5)
     7b4:	0007a623          	sw	zero,12(a5)
     7b8:	0007a823          	sw	zero,16(a5)
     7bc:	0007aa23          	sw	zero,20(a5)
     7c0:	0007ac23          	sw	zero,24(a5)
     7c4:	0007ae23          	sw	zero,28(a5)
     7c8:	0207a023          	sw	zero,32(a5)
     7cc:	0207a223          	sw	zero,36(a5)
     7d0:	0207a423          	sw	zero,40(a5)
     7d4:	0207a623          	sw	zero,44(a5)
     7d8:	0207a823          	sw	zero,48(a5)
     7dc:	0207aa23          	sw	zero,52(a5)
     7e0:	0207ac23          	sw	zero,56(a5)
     7e4:	0207ae23          	sw	zero,60(a5)
     7e8:	0407a023          	sw	zero,64(a5)
     7ec:	0407a223          	sw	zero,68(a5)
     7f0:	0407a423          	sw	zero,72(a5)
     7f4:	0407a623          	sw	zero,76(a5)
     7f8:	0407a823          	sw	zero,80(a5)
     7fc:	0407aa23          	sw	zero,84(a5)
     800:	0407ac23          	sw	zero,88(a5)
     804:	0407ae23          	sw	zero,92(a5)
     808:	0607a023          	sw	zero,96(a5)
     80c:	0607a223          	sw	zero,100(a5)
     810:	0607a423          	sw	zero,104(a5)
     814:	0607a623          	sw	zero,108(a5)
     818:	0607a823          	sw	zero,112(a5)
     81c:	0607aa23          	sw	zero,116(a5)
     820:	0607ac23          	sw	zero,120(a5)
     824:	0607ae23          	sw	zero,124(a5)
     828:	0807a023          	sw	zero,128(a5)
     82c:	0807a223          	sw	zero,132(a5)
     830:	0807a423          	sw	zero,136(a5)
     834:	0807a623          	sw	zero,140(a5)
     838:	0807a823          	sw	zero,144(a5)
     83c:	0807aa23          	sw	zero,148(a5)
     840:	0807ac23          	sw	zero,152(a5)
     844:	0807ae23          	sw	zero,156(a5)
     848:	0a07a023          	sw	zero,160(a5)
     84c:	0a07a223          	sw	zero,164(a5)
     850:	0a07a423          	sw	zero,168(a5)
     854:	0a07a623          	sw	zero,172(a5)
     858:	0a07a823          	sw	zero,176(a5)
     85c:	0a07aa23          	sw	zero,180(a5)
     860:	0a07ac23          	sw	zero,184(a5)
     864:	0a07ae23          	sw	zero,188(a5)
     868:	0c07a023          	sw	zero,192(a5)
     86c:	0c07a223          	sw	zero,196(a5)
     870:	00008067          	ret

00000874 <grid_is_occupied>:
     874:	00900713          	li	a4,9
     878:	00050793          	mv	a5,a0
     87c:	04a76063          	bltu	a4,a0,8bc <grid_is_occupied+0x48>
     880:	01300713          	li	a4,19
     884:	00100513          	li	a0,1
     888:	02b74c63          	blt	a4,a1,8c0 <grid_is_occupied+0x4c>
     88c:	00000513          	li	a0,0
     890:	0205c863          	bltz	a1,8c0 <grid_is_occupied+0x4c>
     894:	00259693          	slli	a3,a1,0x2
     898:	00b686b3          	add	a3,a3,a1
     89c:	00003737          	lui	a4,0x3
     8a0:	00169693          	slli	a3,a3,0x1
     8a4:	35070713          	addi	a4,a4,848 # 3350 <grid>
     8a8:	00d70733          	add	a4,a4,a3
     8ac:	00f707b3          	add	a5,a4,a5
     8b0:	0007c503          	lbu	a0,0(a5)
     8b4:	00a03533          	snez	a0,a0
     8b8:	00008067          	ret
     8bc:	00100513          	li	a0,1
     8c0:	00008067          	ret

000008c4 <grid_set>:
     8c4:	00900793          	li	a5,9
     8c8:	02a7e663          	bltu	a5,a0,8f4 <grid_set+0x30>
     8cc:	01300793          	li	a5,19
     8d0:	02b7e263          	bltu	a5,a1,8f4 <grid_set+0x30>
     8d4:	00259713          	slli	a4,a1,0x2
     8d8:	00b70733          	add	a4,a4,a1
     8dc:	000037b7          	lui	a5,0x3
     8e0:	00171713          	slli	a4,a4,0x1
     8e4:	35078793          	addi	a5,a5,848 # 3350 <grid>
     8e8:	00e787b3          	add	a5,a5,a4
     8ec:	00a787b3          	add	a5,a5,a0
     8f0:	00c78023          	sb	a2,0(a5)
     8f4:	00008067          	ret

000008f8 <grid_check_full_line>:
     8f8:	00251793          	slli	a5,a0,0x2
     8fc:	00a787b3          	add	a5,a5,a0
     900:	00179713          	slli	a4,a5,0x1
     904:	000037b7          	lui	a5,0x3
     908:	35078793          	addi	a5,a5,848 # 3350 <grid>
     90c:	00e787b3          	add	a5,a5,a4
     910:	0007c703          	lbu	a4,0(a5)
     914:	04070863          	beqz	a4,964 <grid_check_full_line+0x6c>
     918:	0017c703          	lbu	a4,1(a5)
     91c:	04070463          	beqz	a4,964 <grid_check_full_line+0x6c>
     920:	0027c703          	lbu	a4,2(a5)
     924:	04070063          	beqz	a4,964 <grid_check_full_line+0x6c>
     928:	0037c703          	lbu	a4,3(a5)
     92c:	02070c63          	beqz	a4,964 <grid_check_full_line+0x6c>
     930:	0047c703          	lbu	a4,4(a5)
     934:	02070863          	beqz	a4,964 <grid_check_full_line+0x6c>
     938:	0057c703          	lbu	a4,5(a5)
     93c:	02070463          	beqz	a4,964 <grid_check_full_line+0x6c>
     940:	0067c703          	lbu	a4,6(a5)
     944:	02070063          	beqz	a4,964 <grid_check_full_line+0x6c>
     948:	0077c703          	lbu	a4,7(a5)
     94c:	00070c63          	beqz	a4,964 <grid_check_full_line+0x6c>
     950:	0087c703          	lbu	a4,8(a5)
     954:	00070863          	beqz	a4,964 <grid_check_full_line+0x6c>
     958:	0097c503          	lbu	a0,9(a5)
     95c:	00a03533          	snez	a0,a0
     960:	00008067          	ret
     964:	00000513          	li	a0,0
     968:	00008067          	ret

0000096c <grid_remove_line>:
     96c:	00251713          	slli	a4,a0,0x2
     970:	00a70733          	add	a4,a4,a0
     974:	000037b7          	lui	a5,0x3
     978:	35078793          	addi	a5,a5,848 # 3350 <grid>
     97c:	00171713          	slli	a4,a4,0x1
     980:	00e786b3          	add	a3,a5,a4
     984:	00069023          	sh	zero,0(a3)
     988:	00069123          	sh	zero,2(a3)
     98c:	00069223          	sh	zero,4(a3)
     990:	00069323          	sh	zero,6(a3)
     994:	00069423          	sh	zero,8(a3)
     998:	00008067          	ret

0000099c <grid_shift_down>:
     99c:	08a05663          	blez	a0,a28 <grid_shift_down+0x8c>
     9a0:	00251793          	slli	a5,a0,0x2
     9a4:	00003fb7          	lui	t6,0x3
     9a8:	00a787b3          	add	a5,a5,a0
     9ac:	350f8f13          	addi	t5,t6,848 # 3350 <grid>
     9b0:	00179793          	slli	a5,a5,0x1
     9b4:	00ff07b3          	add	a5,t5,a5
     9b8:	350f8f93          	addi	t6,t6,848
     9bc:	fff7c683          	lbu	a3,-1(a5)
     9c0:	ffe7c703          	lbu	a4,-2(a5)
     9c4:	ff67ce83          	lbu	t4,-10(a5)
     9c8:	ff77ce03          	lbu	t3,-9(a5)
     9cc:	ff87c303          	lbu	t1,-8(a5)
     9d0:	ff97c883          	lbu	a7,-7(a5)
     9d4:	ffa7c803          	lbu	a6,-6(a5)
     9d8:	ffb7c503          	lbu	a0,-5(a5)
     9dc:	ffc7c583          	lbu	a1,-4(a5)
     9e0:	ffd7c603          	lbu	a2,-3(a5)
     9e4:	00869693          	slli	a3,a3,0x8
     9e8:	00d76733          	or	a4,a4,a3
     9ec:	01d78023          	sb	t4,0(a5)
     9f0:	01c780a3          	sb	t3,1(a5)
     9f4:	00678123          	sb	t1,2(a5)
     9f8:	011781a3          	sb	a7,3(a5)
     9fc:	01078223          	sb	a6,4(a5)
     a00:	00a782a3          	sb	a0,5(a5)
     a04:	00b78323          	sb	a1,6(a5)
     a08:	00c783a3          	sb	a2,7(a5)
     a0c:	00e79423          	sh	a4,8(a5)
     a10:	ff678793          	addi	a5,a5,-10
     a14:	faff14e3          	bne	t5,a5,9bc <grid_shift_down+0x20>
     a18:	000fa023          	sw	zero,0(t6)
     a1c:	000fa223          	sw	zero,4(t6)
     a20:	000f9423          	sh	zero,8(t6)
     a24:	00008067          	ret
     a28:	00003fb7          	lui	t6,0x3
     a2c:	350f8f93          	addi	t6,t6,848 # 3350 <grid>
     a30:	000fa023          	sw	zero,0(t6)
     a34:	000fa223          	sw	zero,4(t6)
     a38:	000f9423          	sh	zero,8(t6)
     a3c:	00008067          	ret

00000a40 <grid_clear_full_lines>:
     a40:	ff010113          	addi	sp,sp,-16
     a44:	000032b7          	lui	t0,0x3
     a48:	01312023          	sw	s3,0(sp)
     a4c:	35028393          	addi	t2,t0,848 # 3350 <grid>
     a50:	00812623          	sw	s0,12(sp)
     a54:	00912423          	sw	s1,8(sp)
     a58:	01212223          	sw	s2,4(sp)
     a5c:	01300f93          	li	t6,19
     a60:	00000513          	li	a0,0
     a64:	35028293          	addi	t0,t0,848
     a68:	fff00993          	li	s3,-1
     a6c:	002f9493          	slli	s1,t6,0x2
     a70:	01f48933          	add	s2,s1,t6
     a74:	00191413          	slli	s0,s2,0x1
     a78:	008387b3          	add	a5,t2,s0
     a7c:	0007c783          	lbu	a5,0(a5)
     a80:	10078e63          	beqz	a5,b9c <grid_clear_full_lines+0x15c>
     a84:	008387b3          	add	a5,t2,s0
     a88:	0017c703          	lbu	a4,1(a5)
     a8c:	10070863          	beqz	a4,b9c <grid_clear_full_lines+0x15c>
     a90:	0027c703          	lbu	a4,2(a5)
     a94:	10070463          	beqz	a4,b9c <grid_clear_full_lines+0x15c>
     a98:	0037c703          	lbu	a4,3(a5)
     a9c:	10070063          	beqz	a4,b9c <grid_clear_full_lines+0x15c>
     aa0:	0047c703          	lbu	a4,4(a5)
     aa4:	0e070c63          	beqz	a4,b9c <grid_clear_full_lines+0x15c>
     aa8:	0057c703          	lbu	a4,5(a5)
     aac:	0e070863          	beqz	a4,b9c <grid_clear_full_lines+0x15c>
     ab0:	0067c703          	lbu	a4,6(a5)
     ab4:	0e070463          	beqz	a4,b9c <grid_clear_full_lines+0x15c>
     ab8:	0077c703          	lbu	a4,7(a5)
     abc:	0e070063          	beqz	a4,b9c <grid_clear_full_lines+0x15c>
     ac0:	0087c703          	lbu	a4,8(a5)
     ac4:	0c070c63          	beqz	a4,b9c <grid_clear_full_lines+0x15c>
     ac8:	0097c703          	lbu	a4,9(a5)
     acc:	0c070863          	beqz	a4,b9c <grid_clear_full_lines+0x15c>
     ad0:	00191713          	slli	a4,s2,0x1
     ad4:	00079023          	sh	zero,0(a5)
     ad8:	00079123          	sh	zero,2(a5)
     adc:	00079223          	sh	zero,4(a5)
     ae0:	00079323          	sh	zero,6(a5)
     ae4:	00e387b3          	add	a5,t2,a4
     ae8:	00079423          	sh	zero,8(a5)
     aec:	0c0f8863          	beqz	t6,bbc <grid_clear_full_lines+0x17c>
     af0:	01f487b3          	add	a5,s1,t6
     af4:	00179793          	slli	a5,a5,0x1
     af8:	00f387b3          	add	a5,t2,a5
     afc:	00028393          	mv	t2,t0
     b00:	fff7c683          	lbu	a3,-1(a5)
     b04:	ffe7c703          	lbu	a4,-2(a5)
     b08:	ff67cf03          	lbu	t5,-10(a5)
     b0c:	ff77ce83          	lbu	t4,-9(a5)
     b10:	ff87ce03          	lbu	t3,-8(a5)
     b14:	ff97c303          	lbu	t1,-7(a5)
     b18:	ffa7c883          	lbu	a7,-6(a5)
     b1c:	ffb7c803          	lbu	a6,-5(a5)
     b20:	ffc7c583          	lbu	a1,-4(a5)
     b24:	ffd7c603          	lbu	a2,-3(a5)
     b28:	00869693          	slli	a3,a3,0x8
     b2c:	00d76733          	or	a4,a4,a3
     b30:	01e78023          	sb	t5,0(a5)
     b34:	01d780a3          	sb	t4,1(a5)
     b38:	01c78123          	sb	t3,2(a5)
     b3c:	006781a3          	sb	t1,3(a5)
     b40:	01178223          	sb	a7,4(a5)
     b44:	010782a3          	sb	a6,5(a5)
     b48:	00b78323          	sb	a1,6(a5)
     b4c:	00c783a3          	sb	a2,7(a5)
     b50:	00e79423          	sh	a4,8(a5)
     b54:	ff678793          	addi	a5,a5,-10
     b58:	faf294e3          	bne	t0,a5,b00 <grid_clear_full_lines+0xc0>
     b5c:	01f487b3          	add	a5,s1,t6
     b60:	00179793          	slli	a5,a5,0x1
     b64:	0002a023          	sw	zero,0(t0)
     b68:	0002a223          	sw	zero,4(t0)
     b6c:	00029423          	sh	zero,8(t0)
     b70:	00f287b3          	add	a5,t0,a5
     b74:	0007c783          	lbu	a5,0(a5)
     b78:	00150513          	addi	a0,a0,1
     b7c:	f00794e3          	bnez	a5,a84 <grid_clear_full_lines+0x44>
     b80:	ffff8f93          	addi	t6,t6,-1
     b84:	002f9493          	slli	s1,t6,0x2
     b88:	01f48933          	add	s2,s1,t6
     b8c:	00191413          	slli	s0,s2,0x1
     b90:	008387b3          	add	a5,t2,s0
     b94:	0007c783          	lbu	a5,0(a5)
     b98:	ee0796e3          	bnez	a5,a84 <grid_clear_full_lines+0x44>
     b9c:	ffff8f93          	addi	t6,t6,-1
     ba0:	ed3f96e3          	bne	t6,s3,a6c <grid_clear_full_lines+0x2c>
     ba4:	00c12403          	lw	s0,12(sp)
     ba8:	00812483          	lw	s1,8(sp)
     bac:	00412903          	lw	s2,4(sp)
     bb0:	00012983          	lw	s3,0(sp)
     bb4:	01010113          	addi	sp,sp,16
     bb8:	00008067          	ret
     bbc:	0003a023          	sw	zero,0(t2)
     bc0:	0003a223          	sw	zero,4(t2)
     bc4:	00039423          	sh	zero,8(t2)
     bc8:	00c12403          	lw	s0,12(sp)
     bcc:	00812483          	lw	s1,8(sp)
     bd0:	00412903          	lw	s2,4(sp)
     bd4:	00012983          	lw	s3,0(sp)
     bd8:	00150513          	addi	a0,a0,1
     bdc:	01010113          	addi	sp,sp,16
     be0:	00008067          	ret

00000be4 <set_leds>:
     be4:	3ff57513          	andi	a0,a0,1023
     be8:	040007b7          	lui	a5,0x4000
     bec:	00a7a023          	sw	a0,0(a5) # 4000000 <_stack_end+0x3efca98>
     bf0:	00008067          	ret

00000bf4 <set_displays>:
     bf4:	00500793          	li	a5,5
     bf8:	00a7ec63          	bltu	a5,a0,c10 <set_displays+0x1c>
     bfc:	004007b7          	lui	a5,0x400
     c00:	00578793          	addi	a5,a5,5 # 400005 <_stack_end+0x2fca9d>
     c04:	00f50533          	add	a0,a0,a5
     c08:	00451513          	slli	a0,a0,0x4
     c0c:	00b52023          	sw	a1,0(a0)
     c10:	00008067          	ret

00000c14 <get_sw>:
     c14:	040007b7          	lui	a5,0x4000
     c18:	0107a503          	lw	a0,16(a5) # 4000010 <_stack_end+0x3efcaa8>
     c1c:	3ff57513          	andi	a0,a0,1023
     c20:	00008067          	ret

00000c24 <get_btn>:
     c24:	040007b7          	lui	a5,0x4000
     c28:	0d07a503          	lw	a0,208(a5) # 40000d0 <_stack_end+0x3efcb68>
     c2c:	00157513          	andi	a0,a0,1
     c30:	00008067          	ret

00000c34 <display_digit_seg>:
     c34:	00900793          	li	a5,9
     c38:	0c000713          	li	a4,192
     c3c:	00b7ec63          	bltu	a5,a1,c54 <display_digit_seg+0x20>
     c40:	000037b7          	lui	a5,0x3
     c44:	00259593          	slli	a1,a1,0x2
     c48:	4b878793          	addi	a5,a5,1208 # 34b8 <segm_encoding>
     c4c:	00b787b3          	add	a5,a5,a1
     c50:	0007a703          	lw	a4,0(a5)
     c54:	00500793          	li	a5,5
     c58:	00a7ec63          	bltu	a5,a0,c70 <display_digit_seg+0x3c>
     c5c:	004007b7          	lui	a5,0x400
     c60:	00578793          	addi	a5,a5,5 # 400005 <_stack_end+0x2fca9d>
     c64:	00f50533          	add	a0,a0,a5
     c68:	00451513          	slli	a0,a0,0x4
     c6c:	00e52023          	sw	a4,0(a0)
     c70:	00008067          	ret

00000c74 <update_all_displays_from_time>:
     c74:	000036b7          	lui	a3,0x3
     c78:	4346a783          	lw	a5,1076(a3) # 3434 <hours>
     c7c:	00a00713          	li	a4,10
     c80:	00900593          	li	a1,9
     c84:	02e7c7b3          	div	a5,a5,a4
     c88:	0c000613          	li	a2,192
     c8c:	02e7e7b3          	rem	a5,a5,a4
     c90:	00f5ec63          	bltu	a1,a5,ca8 <update_all_displays_from_time+0x34>
     c94:	00003737          	lui	a4,0x3
     c98:	00279793          	slli	a5,a5,0x2
     c9c:	4b870713          	addi	a4,a4,1208 # 34b8 <segm_encoding>
     ca0:	00f707b3          	add	a5,a4,a5
     ca4:	0007a603          	lw	a2,0(a5)
     ca8:	04000737          	lui	a4,0x4000
     cac:	0ac72023          	sw	a2,160(a4) # 40000a0 <_stack_end+0x3efcb38>
     cb0:	4346a783          	lw	a5,1076(a3)
     cb4:	00a00613          	li	a2,10
     cb8:	00900693          	li	a3,9
     cbc:	02c7e7b3          	rem	a5,a5,a2
     cc0:	0c000613          	li	a2,192
     cc4:	00f6ec63          	bltu	a3,a5,cdc <update_all_displays_from_time+0x68>
     cc8:	00003737          	lui	a4,0x3
     ccc:	00279793          	slli	a5,a5,0x2
     cd0:	4b870713          	addi	a4,a4,1208 # 34b8 <segm_encoding>
     cd4:	00f707b3          	add	a5,a4,a5
     cd8:	0007a603          	lw	a2,0(a5)
     cdc:	04000737          	lui	a4,0x4000
     ce0:	08c72823          	sw	a2,144(a4) # 4000090 <_stack_end+0x3efcb28>
     ce4:	000036b7          	lui	a3,0x3
     ce8:	4386a783          	lw	a5,1080(a3) # 3438 <minutes>
     cec:	00a00613          	li	a2,10
     cf0:	00900513          	li	a0,9
     cf4:	02c7c7b3          	div	a5,a5,a2
     cf8:	0c000593          	li	a1,192
     cfc:	02c7e7b3          	rem	a5,a5,a2
     d00:	00f56c63          	bltu	a0,a5,d18 <update_all_displays_from_time+0xa4>
     d04:	00003737          	lui	a4,0x3
     d08:	00279793          	slli	a5,a5,0x2
     d0c:	4b870713          	addi	a4,a4,1208 # 34b8 <segm_encoding>
     d10:	00f707b3          	add	a5,a4,a5
     d14:	0007a583          	lw	a1,0(a5)
     d18:	04000737          	lui	a4,0x4000
     d1c:	08b72023          	sw	a1,128(a4) # 4000080 <_stack_end+0x3efcb18>
     d20:	4386a783          	lw	a5,1080(a3)
     d24:	00a00613          	li	a2,10
     d28:	00900693          	li	a3,9
     d2c:	02c7e7b3          	rem	a5,a5,a2
     d30:	0c000613          	li	a2,192
     d34:	00f6ec63          	bltu	a3,a5,d4c <update_all_displays_from_time+0xd8>
     d38:	00003737          	lui	a4,0x3
     d3c:	00279793          	slli	a5,a5,0x2
     d40:	4b870713          	addi	a4,a4,1208 # 34b8 <segm_encoding>
     d44:	00f707b3          	add	a5,a4,a5
     d48:	0007a603          	lw	a2,0(a5)
     d4c:	04000737          	lui	a4,0x4000
     d50:	06c72823          	sw	a2,112(a4) # 4000070 <_stack_end+0x3efcb08>
     d54:	000036b7          	lui	a3,0x3
     d58:	43c6a783          	lw	a5,1084(a3) # 343c <seconds>
     d5c:	00a00613          	li	a2,10
     d60:	00900513          	li	a0,9
     d64:	02c7c7b3          	div	a5,a5,a2
     d68:	0c000593          	li	a1,192
     d6c:	02c7e7b3          	rem	a5,a5,a2
     d70:	00f56c63          	bltu	a0,a5,d88 <update_all_displays_from_time+0x114>
     d74:	00003737          	lui	a4,0x3
     d78:	00279793          	slli	a5,a5,0x2
     d7c:	4b870713          	addi	a4,a4,1208 # 34b8 <segm_encoding>
     d80:	00f707b3          	add	a5,a4,a5
     d84:	0007a583          	lw	a1,0(a5)
     d88:	04000737          	lui	a4,0x4000
     d8c:	06b72023          	sw	a1,96(a4) # 4000060 <_stack_end+0x3efcaf8>
     d90:	43c6a783          	lw	a5,1084(a3)
     d94:	00a00613          	li	a2,10
     d98:	00900693          	li	a3,9
     d9c:	02c7e7b3          	rem	a5,a5,a2
     da0:	0c000713          	li	a4,192
     da4:	00f6ec63          	bltu	a3,a5,dbc <update_all_displays_from_time+0x148>
     da8:	00003737          	lui	a4,0x3
     dac:	4b870713          	addi	a4,a4,1208 # 34b8 <segm_encoding>
     db0:	00279793          	slli	a5,a5,0x2
     db4:	00f707b3          	add	a5,a4,a5
     db8:	0007a703          	lw	a4,0(a5)
     dbc:	040007b7          	lui	a5,0x4000
     dc0:	04e7a823          	sw	a4,80(a5) # 4000050 <_stack_end+0x3efcae8>
     dc4:	00008067          	ret

00000dc8 <labinit>:
     dc8:	ffffc6b7          	lui	a3,0xffffc
     dcc:	040007b7          	lui	a5,0x4000
     dd0:	6bf68693          	addi	a3,a3,1727 # ffffc6bf <_stack_end+0xffef9157>
     dd4:	02d79423          	sh	a3,40(a5) # 4000028 <_stack_end+0x3efcac0>
     dd8:	04000737          	lui	a4,0x4000
     ddc:	02d00693          	li	a3,45
     de0:	02d71623          	sh	a3,44(a4) # 400002c <_stack_end+0x3efcac4>
     de4:	040007b7          	lui	a5,0x4000
     de8:	00700713          	li	a4,7
     dec:	02e79223          	sh	a4,36(a5) # 4000024 <_stack_end+0x3efcabc>
     df0:	b84ff06f          	j	174 <enable_interrupt>

00000df4 <handle_interrupt>:
     df4:	040007b7          	lui	a5,0x4000
     df8:	0207d703          	lhu	a4,32(a5) # 4000020 <_stack_end+0x3efcab8>
     dfc:	02078793          	addi	a5,a5,32
     e00:	00177713          	andi	a4,a4,1
     e04:	00070463          	beqz	a4,e0c <handle_interrupt+0x18>
     e08:	00079023          	sh	zero,0(a5)
     e0c:	000037b7          	lui	a5,0x3
     e10:	4287a703          	lw	a4,1064(a5) # 3428 <timeoutcount>
     e14:	00900693          	li	a3,9
     e18:	00170713          	addi	a4,a4,1
     e1c:	42e7a423          	sw	a4,1064(a5)
     e20:	4287a703          	lw	a4,1064(a5)
     e24:	06e6da63          	bge	a3,a4,e98 <handle_interrupt+0xa4>
     e28:	4207a423          	sw	zero,1064(a5)
     e2c:	000037b7          	lui	a5,0x3
     e30:	42c7a703          	lw	a4,1068(a5) # 342c <led_sequence_done>
     e34:	06070463          	beqz	a4,e9c <handle_interrupt+0xa8>
     e38:	000037b7          	lui	a5,0x3
     e3c:	43c7a703          	lw	a4,1084(a5) # 343c <seconds>
     e40:	03b00693          	li	a3,59
     e44:	00170713          	addi	a4,a4,1
     e48:	42e7ae23          	sw	a4,1084(a5)
     e4c:	43c7a703          	lw	a4,1084(a5)
     e50:	04e6d263          	bge	a3,a4,e94 <handle_interrupt+0xa0>
     e54:	4207ae23          	sw	zero,1084(a5)
     e58:	000037b7          	lui	a5,0x3
     e5c:	4387a703          	lw	a4,1080(a5) # 3438 <minutes>
     e60:	00170713          	addi	a4,a4,1
     e64:	42e7ac23          	sw	a4,1080(a5)
     e68:	4387a703          	lw	a4,1080(a5)
     e6c:	02e6d463          	bge	a3,a4,e94 <handle_interrupt+0xa0>
     e70:	4207ac23          	sw	zero,1080(a5)
     e74:	000037b7          	lui	a5,0x3
     e78:	4347a703          	lw	a4,1076(a5) # 3434 <hours>
     e7c:	06300693          	li	a3,99
     e80:	00170713          	addi	a4,a4,1
     e84:	42e7aa23          	sw	a4,1076(a5)
     e88:	4347a703          	lw	a4,1076(a5)
     e8c:	00e6d463          	bge	a3,a4,e94 <handle_interrupt+0xa0>
     e90:	4207aa23          	sw	zero,1076(a5)
     e94:	de1ff06f          	j	c74 <update_all_displays_from_time>
     e98:	00008067          	ret
     e9c:	00003737          	lui	a4,0x3
     ea0:	43072683          	lw	a3,1072(a4) # 3430 <led_value>
     ea4:	04000637          	lui	a2,0x4000
     ea8:	00f00593          	li	a1,15
     eac:	00f6f693          	andi	a3,a3,15
     eb0:	00d62023          	sw	a3,0(a2) # 4000000 <_stack_end+0x3efca98>
     eb4:	43072683          	lw	a3,1072(a4)
     eb8:	00f6f693          	andi	a3,a3,15
     ebc:	00b68c63          	beq	a3,a1,ed4 <handle_interrupt+0xe0>
     ec0:	43072783          	lw	a5,1072(a4)
     ec4:	00178793          	addi	a5,a5,1
     ec8:	00f7f793          	andi	a5,a5,15
     ecc:	42f72823          	sw	a5,1072(a4)
     ed0:	00008067          	ret
     ed4:	00100713          	li	a4,1
     ed8:	42e7a623          	sw	a4,1068(a5)
     edc:	00062023          	sw	zero,0(a2)
     ee0:	00008067          	ret

00000ee4 <main>:
     ee4:	ff010113          	addi	sp,sp,-16
     ee8:	ffffc6b7          	lui	a3,0xffffc
     eec:	00112623          	sw	ra,12(sp)
     ef0:	040007b7          	lui	a5,0x4000
     ef4:	6bf68693          	addi	a3,a3,1727 # ffffc6bf <_stack_end+0xffef9157>
     ef8:	02d79423          	sh	a3,40(a5) # 4000028 <_stack_end+0x3efcac0>
     efc:	04000737          	lui	a4,0x4000
     f00:	02d00693          	li	a3,45
     f04:	02d71623          	sh	a3,44(a4) # 400002c <_stack_end+0x3efcac4>
     f08:	040007b7          	lui	a5,0x4000
     f0c:	00700713          	li	a4,7
     f10:	02e79223          	sh	a4,36(a5) # 4000024 <_stack_end+0x3efcabc>
     f14:	a60ff0ef          	jal	174 <enable_interrupt>
     f18:	578000ef          	jal	1490 <game_init>
     f1c:	481010ef          	jal	2b9c <game_step_gravity>
     f20:	b94ff0ef          	jal	2b4 <to_screen>
     f24:	64000513          	li	a0,1600
     f28:	528000ef          	jal	1450 <delay>
     f2c:	ff1ff06f          	j	f1c <main+0x38>

00000f30 <printc>:
     f30:	04000737          	lui	a4,0x4000
     f34:	04470713          	addi	a4,a4,68 # 4000044 <_stack_end+0x3efcadc>
     f38:	000106b7          	lui	a3,0x10
     f3c:	00072783          	lw	a5,0(a4)
     f40:	fed7eee3          	bltu	a5,a3,f3c <printc+0xc>
     f44:	040007b7          	lui	a5,0x4000
     f48:	04a7a023          	sw	a0,64(a5) # 4000040 <_stack_end+0x3efcad8>
     f4c:	00008067          	ret

00000f50 <print>:
     f50:	00054603          	lbu	a2,0(a0)
     f54:	02060863          	beqz	a2,f84 <print+0x34>
     f58:	04000737          	lui	a4,0x4000
     f5c:	040005b7          	lui	a1,0x4000
     f60:	04470713          	addi	a4,a4,68 # 4000044 <_stack_end+0x3efcadc>
     f64:	000106b7          	lui	a3,0x10
     f68:	04058593          	addi	a1,a1,64 # 4000040 <_stack_end+0x3efcad8>
     f6c:	00072783          	lw	a5,0(a4)
     f70:	fed7eee3          	bltu	a5,a3,f6c <print+0x1c>
     f74:	00c5a023          	sw	a2,0(a1)
     f78:	00154603          	lbu	a2,1(a0)
     f7c:	00150513          	addi	a0,a0,1
     f80:	fe0616e3          	bnez	a2,f6c <print+0x1c>
     f84:	00008067          	ret

00000f88 <print_dec>:
     f88:	3b9ad737          	lui	a4,0x3b9ad
     f8c:	040006b7          	lui	a3,0x4000
     f90:	04000337          	lui	t1,0x4000
     f94:	00a00593          	li	a1,10
     f98:	00000793          	li	a5,0
     f9c:	a0070713          	addi	a4,a4,-1536 # 3b9aca00 <_stack_end+0x3b8a9498>
     fa0:	04468693          	addi	a3,a3,68 # 4000044 <_stack_end+0x3efcadc>
     fa4:	00010637          	lui	a2,0x10
     fa8:	04030313          	addi	t1,t1,64 # 4000040 <_stack_end+0x3efcad8>
     fac:	00a00893          	li	a7,10
     fb0:	04e57063          	bgeu	a0,a4,ff0 <print_dec+0x68>
     fb4:	02079e63          	bnez	a5,ff0 <print_dec+0x68>
     fb8:	fff58593          	addi	a1,a1,-1
     fbc:	02e57533          	remu	a0,a0,a4
     fc0:	03175733          	divu	a4,a4,a7
     fc4:	fe0596e3          	bnez	a1,fb0 <print_dec+0x28>
     fc8:	02079263          	bnez	a5,fec <print_dec+0x64>
     fcc:	04000737          	lui	a4,0x4000
     fd0:	04470713          	addi	a4,a4,68 # 4000044 <_stack_end+0x3efcadc>
     fd4:	000106b7          	lui	a3,0x10
     fd8:	00072783          	lw	a5,0(a4)
     fdc:	fed7eee3          	bltu	a5,a3,fd8 <print_dec+0x50>
     fe0:	040007b7          	lui	a5,0x4000
     fe4:	03000713          	li	a4,48
     fe8:	04e7a023          	sw	a4,64(a5) # 4000040 <_stack_end+0x3efcad8>
     fec:	00008067          	ret
     ff0:	02e55833          	divu	a6,a0,a4
     ff4:	03080813          	addi	a6,a6,48
     ff8:	0ff87813          	zext.b	a6,a6
     ffc:	0006a783          	lw	a5,0(a3) # 10000 <__global_pointer+0xc4bb>
    1000:	fec7eee3          	bltu	a5,a2,ffc <print_dec+0x74>
    1004:	01032023          	sw	a6,0(t1)
    1008:	00100793          	li	a5,1
    100c:	fadff06f          	j	fb8 <print_dec+0x30>

00001010 <print_hex32>:
    1010:	04000737          	lui	a4,0x4000
    1014:	04470713          	addi	a4,a4,68 # 4000044 <_stack_end+0x3efcadc>
    1018:	000106b7          	lui	a3,0x10
    101c:	00072783          	lw	a5,0(a4)
    1020:	fed7eee3          	bltu	a5,a3,101c <print_hex32+0xc>
    1024:	03000693          	li	a3,48
    1028:	040007b7          	lui	a5,0x4000
    102c:	04000737          	lui	a4,0x4000
    1030:	04d7a023          	sw	a3,64(a5) # 4000040 <_stack_end+0x3efcad8>
    1034:	04470713          	addi	a4,a4,68 # 4000044 <_stack_end+0x3efcadc>
    1038:	000106b7          	lui	a3,0x10
    103c:	00072783          	lw	a5,0(a4)
    1040:	fed7eee3          	bltu	a5,a3,103c <print_hex32+0x2c>
    1044:	04000837          	lui	a6,0x4000
    1048:	04080813          	addi	a6,a6,64 # 4000040 <_stack_end+0x3efcad8>
    104c:	04000737          	lui	a4,0x4000
    1050:	07800793          	li	a5,120
    1054:	00f82023          	sw	a5,0(a6)
    1058:	01c00613          	li	a2,28
    105c:	00900313          	li	t1,9
    1060:	04470713          	addi	a4,a4,68 # 4000044 <_stack_end+0x3efcadc>
    1064:	000106b7          	lui	a3,0x10
    1068:	ffc00893          	li	a7,-4
    106c:	00c557b3          	srl	a5,a0,a2
    1070:	00f7f793          	andi	a5,a5,15
    1074:	03778593          	addi	a1,a5,55
    1078:	00f36463          	bltu	t1,a5,1080 <print_hex32+0x70>
    107c:	03078593          	addi	a1,a5,48
    1080:	00072783          	lw	a5,0(a4)
    1084:	fed7eee3          	bltu	a5,a3,1080 <print_hex32+0x70>
    1088:	00b82023          	sw	a1,0(a6)
    108c:	ffc60613          	addi	a2,a2,-4 # fffc <__global_pointer+0xc4b7>
    1090:	fd161ee3          	bne	a2,a7,106c <print_hex32+0x5c>
    1094:	00008067          	ret

00001098 <handle_exception>:
    1098:	00200793          	li	a5,2
    109c:	18f80863          	beq	a6,a5,122c <handle_exception+0x194>
    10a0:	00b00793          	li	a5,11
    10a4:	12f80063          	beq	a6,a5,11c4 <handle_exception+0x12c>
    10a8:	04000737          	lui	a4,0x4000
    10ac:	14081463          	bnez	a6,11f4 <handle_exception+0x15c>
    10b0:	04000837          	lui	a6,0x4000
    10b4:	00003637          	lui	a2,0x3
    10b8:	4e060613          	addi	a2,a2,1248 # 34e0 <segm_encoding+0x28>
    10bc:	00a00593          	li	a1,10
    10c0:	04470713          	addi	a4,a4,68 # 4000044 <_stack_end+0x3efcadc>
    10c4:	000106b7          	lui	a3,0x10
    10c8:	04080813          	addi	a6,a6,64 # 4000040 <_stack_end+0x3efcad8>
    10cc:	00072783          	lw	a5,0(a4)
    10d0:	fed7eee3          	bltu	a5,a3,10cc <handle_exception+0x34>
    10d4:	00b82023          	sw	a1,0(a6)
    10d8:	00164583          	lbu	a1,1(a2)
    10dc:	00160613          	addi	a2,a2,1
    10e0:	fe0596e3          	bnez	a1,10cc <handle_exception+0x34>
    10e4:	04000737          	lui	a4,0x4000
    10e8:	04000837          	lui	a6,0x4000
    10ec:	00003637          	lui	a2,0x3
    10f0:	55460613          	addi	a2,a2,1364 # 3554 <segm_encoding+0x9c>
    10f4:	04500593          	li	a1,69
    10f8:	04470713          	addi	a4,a4,68 # 4000044 <_stack_end+0x3efcadc>
    10fc:	000106b7          	lui	a3,0x10
    1100:	04080813          	addi	a6,a6,64 # 4000040 <_stack_end+0x3efcad8>
    1104:	00072783          	lw	a5,0(a4)
    1108:	fed7eee3          	bltu	a5,a3,1104 <handle_exception+0x6c>
    110c:	00b82023          	sw	a1,0(a6)
    1110:	00164583          	lbu	a1,1(a2)
    1114:	00160613          	addi	a2,a2,1
    1118:	fe0596e3          	bnez	a1,1104 <handle_exception+0x6c>
    111c:	04000737          	lui	a4,0x4000
    1120:	04470713          	addi	a4,a4,68 # 4000044 <_stack_end+0x3efcadc>
    1124:	000106b7          	lui	a3,0x10
    1128:	00072783          	lw	a5,0(a4)
    112c:	fed7eee3          	bltu	a5,a3,1128 <handle_exception+0x90>
    1130:	03000693          	li	a3,48
    1134:	040007b7          	lui	a5,0x4000
    1138:	04000737          	lui	a4,0x4000
    113c:	04d7a023          	sw	a3,64(a5) # 4000040 <_stack_end+0x3efcad8>
    1140:	04470713          	addi	a4,a4,68 # 4000044 <_stack_end+0x3efcadc>
    1144:	000106b7          	lui	a3,0x10
    1148:	00072783          	lw	a5,0(a4)
    114c:	fed7eee3          	bltu	a5,a3,1148 <handle_exception+0xb0>
    1150:	04000837          	lui	a6,0x4000
    1154:	04080813          	addi	a6,a6,64 # 4000040 <_stack_end+0x3efcad8>
    1158:	04000737          	lui	a4,0x4000
    115c:	07800793          	li	a5,120
    1160:	00f82023          	sw	a5,0(a6)
    1164:	01c00613          	li	a2,28
    1168:	00900313          	li	t1,9
    116c:	04470713          	addi	a4,a4,68 # 4000044 <_stack_end+0x3efcadc>
    1170:	000106b7          	lui	a3,0x10
    1174:	ffc00893          	li	a7,-4
    1178:	00c557b3          	srl	a5,a0,a2
    117c:	00f7f793          	andi	a5,a5,15
    1180:	03778593          	addi	a1,a5,55
    1184:	00f36463          	bltu	t1,a5,118c <handle_exception+0xf4>
    1188:	03078593          	addi	a1,a5,48
    118c:	00072783          	lw	a5,0(a4)
    1190:	fed7eee3          	bltu	a5,a3,118c <handle_exception+0xf4>
    1194:	00b82023          	sw	a1,0(a6)
    1198:	ffc60613          	addi	a2,a2,-4
    119c:	fd161ee3          	bne	a2,a7,1178 <handle_exception+0xe0>
    11a0:	04000737          	lui	a4,0x4000
    11a4:	04470713          	addi	a4,a4,68 # 4000044 <_stack_end+0x3efcadc>
    11a8:	000106b7          	lui	a3,0x10
    11ac:	00072783          	lw	a5,0(a4)
    11b0:	fed7eee3          	bltu	a5,a3,11ac <handle_exception+0x114>
    11b4:	040007b7          	lui	a5,0x4000
    11b8:	00a00713          	li	a4,10
    11bc:	04e7a023          	sw	a4,64(a5) # 4000040 <_stack_end+0x3efcad8>
    11c0:	0000006f          	j	11c0 <handle_exception+0x128>
    11c4:	00400793          	li	a5,4
    11c8:	0af88063          	beq	a7,a5,1268 <handle_exception+0x1d0>
    11cc:	0d089a63          	bne	a7,a6,12a0 <handle_exception+0x208>
    11d0:	04000737          	lui	a4,0x4000
    11d4:	04470713          	addi	a4,a4,68 # 4000044 <_stack_end+0x3efcadc>
    11d8:	000106b7          	lui	a3,0x10
    11dc:	00072783          	lw	a5,0(a4)
    11e0:	fed7eee3          	bltu	a5,a3,11dc <handle_exception+0x144>
    11e4:	040007b7          	lui	a5,0x4000
    11e8:	0ff57513          	zext.b	a0,a0
    11ec:	04a7a023          	sw	a0,64(a5) # 4000040 <_stack_end+0x3efcad8>
    11f0:	00008067          	ret
    11f4:	04000837          	lui	a6,0x4000
    11f8:	00003637          	lui	a2,0x3
    11fc:	53460613          	addi	a2,a2,1332 # 3534 <segm_encoding+0x7c>
    1200:	00a00593          	li	a1,10
    1204:	04470713          	addi	a4,a4,68
    1208:	000106b7          	lui	a3,0x10
    120c:	04080813          	addi	a6,a6,64 # 4000040 <_stack_end+0x3efcad8>
    1210:	00072783          	lw	a5,0(a4)
    1214:	fed7eee3          	bltu	a5,a3,1210 <handle_exception+0x178>
    1218:	00b82023          	sw	a1,0(a6)
    121c:	00164583          	lbu	a1,1(a2)
    1220:	00160613          	addi	a2,a2,1
    1224:	fe0596e3          	bnez	a1,1210 <handle_exception+0x178>
    1228:	ebdff06f          	j	10e4 <handle_exception+0x4c>
    122c:	04000737          	lui	a4,0x4000
    1230:	04000837          	lui	a6,0x4000
    1234:	00003637          	lui	a2,0x3
    1238:	51060613          	addi	a2,a2,1296 # 3510 <segm_encoding+0x58>
    123c:	00a00593          	li	a1,10
    1240:	04470713          	addi	a4,a4,68 # 4000044 <_stack_end+0x3efcadc>
    1244:	000106b7          	lui	a3,0x10
    1248:	04080813          	addi	a6,a6,64 # 4000040 <_stack_end+0x3efcad8>
    124c:	00072783          	lw	a5,0(a4)
    1250:	fed7eee3          	bltu	a5,a3,124c <handle_exception+0x1b4>
    1254:	00b82023          	sw	a1,0(a6)
    1258:	00164583          	lbu	a1,1(a2)
    125c:	00160613          	addi	a2,a2,1
    1260:	fe0596e3          	bnez	a1,124c <handle_exception+0x1b4>
    1264:	e81ff06f          	j	10e4 <handle_exception+0x4c>
    1268:	00054603          	lbu	a2,0(a0)
    126c:	02060a63          	beqz	a2,12a0 <handle_exception+0x208>
    1270:	04000737          	lui	a4,0x4000
    1274:	040005b7          	lui	a1,0x4000
    1278:	04470713          	addi	a4,a4,68 # 4000044 <_stack_end+0x3efcadc>
    127c:	000106b7          	lui	a3,0x10
    1280:	04058593          	addi	a1,a1,64 # 4000040 <_stack_end+0x3efcad8>
    1284:	00072783          	lw	a5,0(a4)
    1288:	fed7eee3          	bltu	a5,a3,1284 <handle_exception+0x1ec>
    128c:	00c5a023          	sw	a2,0(a1)
    1290:	00154603          	lbu	a2,1(a0)
    1294:	00150513          	addi	a0,a0,1
    1298:	fe0616e3          	bnez	a2,1284 <handle_exception+0x1ec>
    129c:	00008067          	ret
    12a0:	00008067          	ret

000012a4 <nextprime>:
    12a4:	00200713          	li	a4,2
    12a8:	00050793          	mv	a5,a0
    12ac:	02a74063          	blt	a4,a0,12cc <nextprime+0x28>
    12b0:	00100513          	li	a0,1
    12b4:	00f05a63          	blez	a5,12c8 <nextprime+0x24>
    12b8:	fff78793          	addi	a5,a5,-1
    12bc:	00f037b3          	snez	a5,a5
    12c0:	00278513          	addi	a0,a5,2
    12c4:	00008067          	ret
    12c8:	00008067          	ret
    12cc:	00150793          	addi	a5,a0,1
    12d0:	0017e513          	ori	a0,a5,1
    12d4:	00300613          	li	a2,3
    12d8:	02c567b3          	rem	a5,a0,a2
    12dc:	40155693          	srai	a3,a0,0x1
    12e0:	02078263          	beqz	a5,1304 <nextprime+0x60>
    12e4:	00268693          	addi	a3,a3,2 # 10002 <__global_pointer+0xc4bd>
    12e8:	00300793          	li	a5,3
    12ec:	00c0006f          	j	12f8 <nextprime+0x54>
    12f0:	02f56733          	rem	a4,a0,a5
    12f4:	00070863          	beqz	a4,1304 <nextprime+0x60>
    12f8:	00178793          	addi	a5,a5,1
    12fc:	fef69ae3          	bne	a3,a5,12f0 <nextprime+0x4c>
    1300:	00008067          	ret
    1304:	00250513          	addi	a0,a0,2
    1308:	fd1ff06f          	j	12d8 <nextprime+0x34>

0000130c <display_string>:
    130c:	00400893          	li	a7,4
    1310:	00000073          	ecall
    1314:	00a00513          	li	a0,10
    1318:	00b00893          	li	a7,11
    131c:	00000073          	ecall
    1320:	00008067          	ret

00001324 <timetemplate>:
    1324:	00002517          	auipc	a0,0x2
    1328:	00450513          	addi	a0,a0,4 # 3328 <timstr>
    132c:	fe1ff0ef          	jal	130c <display_string>
    1330:	3e800513          	li	a0,1000
    1334:	11c000ef          	jal	1450 <delay>
    1338:	00002517          	auipc	a0,0x2
    133c:	fec50513          	addi	a0,a0,-20 # 3324 <mytime>
    1340:	020000ef          	jal	1360 <tick>
    1344:	00002517          	auipc	a0,0x2
    1348:	fe450513          	addi	a0,a0,-28 # 3328 <timstr>
    134c:	00002297          	auipc	t0,0x2
    1350:	fd828293          	addi	t0,t0,-40 # 3324 <mytime>
    1354:	0002a583          	lw	a1,0(t0)
    1358:	080000ef          	jal	13d8 <time2string>
    135c:	fc9ff06f          	j	1324 <timetemplate>

00001360 <tick>:
    1360:	00052283          	lw	t0,0(a0)
    1364:	00128293          	addi	t0,t0,1
    1368:	00f2f313          	andi	t1,t0,15
    136c:	00a33393          	sltiu	t2,t1,10
    1370:	06039063          	bnez	t2,13d0 <tiend>
    1374:	00628293          	addi	t0,t0,6
    1378:	0f02f313          	andi	t1,t0,240
    137c:	06033393          	sltiu	t2,t1,96
    1380:	04039863          	bnez	t2,13d0 <tiend>
    1384:	0a028293          	addi	t0,t0,160
    1388:	00f00e13          	li	t3,15
    138c:	008e1e13          	slli	t3,t3,0x8
    1390:	01c2f333          	and	t1,t0,t3
    1394:	00a00e13          	li	t3,10
    1398:	008e1e13          	slli	t3,t3,0x8
    139c:	01c323b3          	slt	t2,t1,t3
    13a0:	02039863          	bnez	t2,13d0 <tiend>
    13a4:	60028293          	addi	t0,t0,1536
    13a8:	00f00e13          	li	t3,15
    13ac:	00ce1e13          	slli	t3,t3,0xc
    13b0:	01c2f333          	and	t1,t0,t3
    13b4:	00600e13          	li	t3,6
    13b8:	00ce1e13          	slli	t3,t3,0xc
    13bc:	01c323b3          	slt	t2,t1,t3
    13c0:	00039863          	bnez	t2,13d0 <tiend>
    13c4:	00a00e13          	li	t3,10
    13c8:	00ce1e13          	slli	t3,t3,0xc
    13cc:	01c282b3          	add	t0,t0,t3

000013d0 <tiend>:
    13d0:	00552023          	sw	t0,0(a0)
    13d4:	00008067          	ret

000013d8 <time2string>:
    13d8:	ffc10113          	addi	sp,sp,-4
    13dc:	00112023          	sw	ra,0(sp)
    13e0:	00050293          	mv	t0,a0
    13e4:	00c5de13          	srli	t3,a1,0xc
    13e8:	00fe7e13          	andi	t3,t3,15
    13ec:	000e0513          	mv	a0,t3
    13f0:	080000ef          	jal	1470 <hexasc>
    13f4:	00a28023          	sb	a0,0(t0)
    13f8:	0085de13          	srli	t3,a1,0x8
    13fc:	00fe7e13          	andi	t3,t3,15
    1400:	000e0513          	mv	a0,t3
    1404:	06c000ef          	jal	1470 <hexasc>
    1408:	00a280a3          	sb	a0,1(t0)
    140c:	03a00513          	li	a0,58
    1410:	00a28123          	sb	a0,2(t0)
    1414:	0045de13          	srli	t3,a1,0x4
    1418:	00fe7e13          	andi	t3,t3,15
    141c:	000e0513          	mv	a0,t3
    1420:	050000ef          	jal	1470 <hexasc>
    1424:	00a281a3          	sb	a0,3(t0)
    1428:	0005de13          	srli	t3,a1,0x0
    142c:	00fe7e13          	andi	t3,t3,15
    1430:	000e0513          	mv	a0,t3
    1434:	03c000ef          	jal	1470 <hexasc>
    1438:	00a28223          	sb	a0,4(t0)
    143c:	00000513          	li	a0,0
    1440:	000282a3          	sb	zero,5(t0)
    1444:	00012083          	lw	ra,0(sp)
    1448:	00410113          	addi	sp,sp,4
    144c:	00008067          	ret

00001450 <delay>:
    1450:	00a05e63          	blez	a0,146c <return>
    1454:	fff50513          	addi	a0,a0,-1
    1458:	62200293          	li	t0,1570
    145c:	00000313          	li	t1,0

00001460 <for>:
    1460:	00130313          	addi	t1,t1,1
    1464:	fe534ee3          	blt	t1,t0,1460 <for>
    1468:	fe9ff06f          	j	1450 <delay>

0000146c <return>:
    146c:	00008067          	ret

00001470 <hexasc>:
    1470:	00f57513          	andi	a0,a0,15
    1474:	00a00313          	li	t1,10
    1478:	00654863          	blt	a0,t1,1488 <digit>
    147c:	ff650513          	addi	a0,a0,-10
    1480:	04150513          	addi	a0,a0,65
    1484:	00008067          	ret

00001488 <digit>:
    1488:	03050513          	addi	a0,a0,48
    148c:	00008067          	ret

00001490 <game_init>:
    1490:	fe010113          	addi	sp,sp,-32
    1494:	00812c23          	sw	s0,24(sp)
    1498:	00912a23          	sw	s1,20(sp)
    149c:	01212823          	sw	s2,16(sp)
    14a0:	01312623          	sw	s3,12(sp)
    14a4:	00112e23          	sw	ra,28(sp)
    14a8:	af8ff0ef          	jal	7a0 <grid_clear>
    14ac:	00003637          	lui	a2,0x3
    14b0:	44064683          	lbu	a3,1088(a2) # 3440 <next_id.0>
    14b4:	00700793          	li	a5,7
    14b8:	00003437          	lui	s0,0x3
    14bc:	00368713          	addi	a4,a3,3
    14c0:	02f76733          	rem	a4,a4,a5
    14c4:	00469993          	slli	s3,a3,0x4
    14c8:	44840413          	addi	s0,s0,1096 # 3448 <tetromino_shapes>
    14cc:	013407b3          	add	a5,s0,s3
    14d0:	0027c483          	lbu	s1,2(a5)
    14d4:	000037b7          	lui	a5,0x3
    14d8:	41878793          	addi	a5,a5,1048 # 3418 <current_piece>
    14dc:	00d7a423          	sw	a3,8(a5)
    14e0:	00300693          	li	a3,3
    14e4:	00d7a023          	sw	a3,0(a5)
    14e8:	00003937          	lui	s2,0x3
    14ec:	ffe00693          	li	a3,-2
    14f0:	0007a623          	sw	zero,12(a5)
    14f4:	00d7a223          	sw	a3,4(a5)
    14f8:	44092223          	sw	zero,1092(s2) # 3444 <score>
    14fc:	0084f793          	andi	a5,s1,8
    1500:	44e60023          	sb	a4,1088(a2)
    1504:	00078a63          	beqz	a5,1518 <game_init+0x88>
    1508:	00000593          	li	a1,0
    150c:	00300513          	li	a0,3
    1510:	b64ff0ef          	jal	874 <grid_is_occupied>
    1514:	0c051863          	bnez	a0,15e4 <game_init+0x154>
    1518:	0044f793          	andi	a5,s1,4
    151c:	00078a63          	beqz	a5,1530 <game_init+0xa0>
    1520:	00000593          	li	a1,0
    1524:	00400513          	li	a0,4
    1528:	b4cff0ef          	jal	874 <grid_is_occupied>
    152c:	0a051c63          	bnez	a0,15e4 <game_init+0x154>
    1530:	0024f793          	andi	a5,s1,2
    1534:	00078a63          	beqz	a5,1548 <game_init+0xb8>
    1538:	00000593          	li	a1,0
    153c:	00500513          	li	a0,5
    1540:	b34ff0ef          	jal	874 <grid_is_occupied>
    1544:	0a051063          	bnez	a0,15e4 <game_init+0x154>
    1548:	0014f493          	andi	s1,s1,1
    154c:	00048a63          	beqz	s1,1560 <game_init+0xd0>
    1550:	00000593          	li	a1,0
    1554:	00600513          	li	a0,6
    1558:	b1cff0ef          	jal	874 <grid_is_occupied>
    155c:	08051463          	bnez	a0,15e4 <game_init+0x154>
    1560:	01340433          	add	s0,s0,s3
    1564:	00344403          	lbu	s0,3(s0)
    1568:	00847793          	andi	a5,s0,8
    156c:	00078a63          	beqz	a5,1580 <game_init+0xf0>
    1570:	00100593          	li	a1,1
    1574:	00300513          	li	a0,3
    1578:	afcff0ef          	jal	874 <grid_is_occupied>
    157c:	06051463          	bnez	a0,15e4 <game_init+0x154>
    1580:	00447793          	andi	a5,s0,4
    1584:	00078a63          	beqz	a5,1598 <game_init+0x108>
    1588:	00100593          	li	a1,1
    158c:	00400513          	li	a0,4
    1590:	ae4ff0ef          	jal	874 <grid_is_occupied>
    1594:	04051863          	bnez	a0,15e4 <game_init+0x154>
    1598:	00247793          	andi	a5,s0,2
    159c:	00078a63          	beqz	a5,15b0 <game_init+0x120>
    15a0:	00100593          	li	a1,1
    15a4:	00500513          	li	a0,5
    15a8:	accff0ef          	jal	874 <grid_is_occupied>
    15ac:	02051c63          	bnez	a0,15e4 <game_init+0x154>
    15b0:	00147413          	andi	s0,s0,1
    15b4:	00040a63          	beqz	s0,15c8 <game_init+0x138>
    15b8:	00100593          	li	a1,1
    15bc:	00600513          	li	a0,6
    15c0:	ab4ff0ef          	jal	874 <grid_is_occupied>
    15c4:	02051063          	bnez	a0,15e4 <game_init+0x154>
    15c8:	01c12083          	lw	ra,28(sp)
    15cc:	01812403          	lw	s0,24(sp)
    15d0:	01412483          	lw	s1,20(sp)
    15d4:	01012903          	lw	s2,16(sp)
    15d8:	00c12983          	lw	s3,12(sp)
    15dc:	02010113          	addi	sp,sp,32
    15e0:	00008067          	ret
    15e4:	9bcff0ef          	jal	7a0 <grid_clear>
    15e8:	01c12083          	lw	ra,28(sp)
    15ec:	01812403          	lw	s0,24(sp)
    15f0:	44092223          	sw	zero,1092(s2)
    15f4:	01412483          	lw	s1,20(sp)
    15f8:	01012903          	lw	s2,16(sp)
    15fc:	00c12983          	lw	s3,12(sp)
    1600:	02010113          	addi	sp,sp,32
    1604:	00008067          	ret

00001608 <game_check_collision>:
    1608:	fe010113          	addi	sp,sp,-32
    160c:	01312623          	sw	s3,12(sp)
    1610:	00112e23          	sw	ra,28(sp)
    1614:	00812c23          	sw	s0,24(sp)
    1618:	00912a23          	sw	s1,20(sp)
    161c:	01212823          	sw	s2,16(sp)
    1620:	01412423          	sw	s4,8(sp)
    1624:	01512223          	sw	s5,4(sp)
    1628:	00900793          	li	a5,9
    162c:	00050993          	mv	s3,a0
    1630:	1aa7e063          	bltu	a5,a0,17d0 <game_check_collision+0x1c8>
    1634:	00261613          	slli	a2,a2,0x2
    1638:	00d60933          	add	s2,a2,a3
    163c:	00291913          	slli	s2,s2,0x2
    1640:	00003a37          	lui	s4,0x3
    1644:	01612023          	sw	s6,0(sp)
    1648:	00058413          	mv	s0,a1
    164c:	00458a93          	addi	s5,a1,4
    1650:	40b90933          	sub	s2,s2,a1
    1654:	448a0a13          	addi	s4,s4,1096 # 3448 <tetromino_shapes>
    1658:	01300b13          	li	s6,19
    165c:	012407b3          	add	a5,s0,s2
    1660:	00fa07b3          	add	a5,s4,a5
    1664:	0007c483          	lbu	s1,0(a5)
    1668:	0084f793          	andi	a5,s1,8
    166c:	0e078c63          	beqz	a5,1764 <game_check_collision+0x15c>
    1670:	0c8b4463          	blt	s6,s0,1738 <game_check_collision+0x130>
    1674:	04045463          	bgez	s0,16bc <game_check_collision+0xb4>
    1678:	0044f793          	andi	a5,s1,4
    167c:	06078a63          	beqz	a5,16f0 <game_check_collision+0xe8>
    1680:	00900793          	li	a5,9
    1684:	0af98a63          	beq	s3,a5,1738 <game_check_collision+0x130>
    1688:	0024f793          	andi	a5,s1,2
    168c:	0e078e63          	beqz	a5,1788 <game_check_collision+0x180>
    1690:	00800793          	li	a5,8
    1694:	0af98263          	beq	s3,a5,1738 <game_check_collision+0x130>
    1698:	0014f493          	andi	s1,s1,1
    169c:	00048663          	beqz	s1,16a8 <game_check_collision+0xa0>
    16a0:	00700793          	li	a5,7
    16a4:	08f98a63          	beq	s3,a5,1738 <game_check_collision+0x130>
    16a8:	00140413          	addi	s0,s0,1
    16ac:	fb5418e3          	bne	s0,s5,165c <game_check_collision+0x54>
    16b0:	00012b03          	lw	s6,0(sp)
    16b4:	00000513          	li	a0,0
    16b8:	0880006f          	j	1740 <game_check_collision+0x138>
    16bc:	00040593          	mv	a1,s0
    16c0:	00098513          	mv	a0,s3
    16c4:	9b0ff0ef          	jal	874 <grid_is_occupied>
    16c8:	06051863          	bnez	a0,1738 <game_check_collision+0x130>
    16cc:	0044f793          	andi	a5,s1,4
    16d0:	0c078e63          	beqz	a5,17ac <game_check_collision+0x1a4>
    16d4:	00198513          	addi	a0,s3,1
    16d8:	00a00793          	li	a5,10
    16dc:	04f50e63          	beq	a0,a5,1738 <game_check_collision+0x130>
    16e0:	fa0444e3          	bltz	s0,1688 <game_check_collision+0x80>
    16e4:	00040593          	mv	a1,s0
    16e8:	98cff0ef          	jal	874 <grid_is_occupied>
    16ec:	04051663          	bnez	a0,1738 <game_check_collision+0x130>
    16f0:	0024f793          	andi	a5,s1,2
    16f4:	08078a63          	beqz	a5,1788 <game_check_collision+0x180>
    16f8:	00298513          	addi	a0,s3,2
    16fc:	00900793          	li	a5,9
    1700:	02a7cc63          	blt	a5,a0,1738 <game_check_collision+0x130>
    1704:	f8044ae3          	bltz	s0,1698 <game_check_collision+0x90>
    1708:	00040593          	mv	a1,s0
    170c:	968ff0ef          	jal	874 <grid_is_occupied>
    1710:	02051463          	bnez	a0,1738 <game_check_collision+0x130>
    1714:	0014f493          	andi	s1,s1,1
    1718:	f80488e3          	beqz	s1,16a8 <game_check_collision+0xa0>
    171c:	00398513          	addi	a0,s3,3
    1720:	00900793          	li	a5,9
    1724:	00a7ca63          	blt	a5,a0,1738 <game_check_collision+0x130>
    1728:	f80440e3          	bltz	s0,16a8 <game_check_collision+0xa0>
    172c:	00040593          	mv	a1,s0
    1730:	944ff0ef          	jal	874 <grid_is_occupied>
    1734:	f6050ae3          	beqz	a0,16a8 <game_check_collision+0xa0>
    1738:	00012b03          	lw	s6,0(sp)
    173c:	00100513          	li	a0,1
    1740:	01c12083          	lw	ra,28(sp)
    1744:	01812403          	lw	s0,24(sp)
    1748:	01412483          	lw	s1,20(sp)
    174c:	01012903          	lw	s2,16(sp)
    1750:	00c12983          	lw	s3,12(sp)
    1754:	00812a03          	lw	s4,8(sp)
    1758:	00412a83          	lw	s5,4(sp)
    175c:	02010113          	addi	sp,sp,32
    1760:	00008067          	ret
    1764:	0044f793          	andi	a5,s1,4
    1768:	04078263          	beqz	a5,17ac <game_check_collision+0x1a4>
    176c:	00198513          	addi	a0,s3,1
    1770:	00a00793          	li	a5,10
    1774:	fcf502e3          	beq	a0,a5,1738 <game_check_collision+0x130>
    1778:	01300793          	li	a5,19
    177c:	f687d2e3          	bge	a5,s0,16e0 <game_check_collision+0xd8>
    1780:	00012b03          	lw	s6,0(sp)
    1784:	fb9ff06f          	j	173c <game_check_collision+0x134>
    1788:	0014f493          	andi	s1,s1,1
    178c:	f0048ee3          	beqz	s1,16a8 <game_check_collision+0xa0>
    1790:	00398513          	addi	a0,s3,3
    1794:	00900793          	li	a5,9
    1798:	faa7c0e3          	blt	a5,a0,1738 <game_check_collision+0x130>
    179c:	01300793          	li	a5,19
    17a0:	f887d4e3          	bge	a5,s0,1728 <game_check_collision+0x120>
    17a4:	00012b03          	lw	s6,0(sp)
    17a8:	f95ff06f          	j	173c <game_check_collision+0x134>
    17ac:	0024f793          	andi	a5,s1,2
    17b0:	fc078ce3          	beqz	a5,1788 <game_check_collision+0x180>
    17b4:	00298513          	addi	a0,s3,2
    17b8:	00900793          	li	a5,9
    17bc:	f6a7cee3          	blt	a5,a0,1738 <game_check_collision+0x130>
    17c0:	01300793          	li	a5,19
    17c4:	f487d0e3          	bge	a5,s0,1704 <game_check_collision+0xfc>
    17c8:	00012b03          	lw	s6,0(sp)
    17cc:	f71ff06f          	j	173c <game_check_collision+0x134>
    17d0:	00261613          	slli	a2,a2,0x2
    17d4:	00d604b3          	add	s1,a2,a3
    17d8:	00249493          	slli	s1,s1,0x2
    17dc:	00003a37          	lui	s4,0x3
    17e0:	00058413          	mv	s0,a1
    17e4:	00458a93          	addi	s5,a1,4
    17e8:	40b484b3          	sub	s1,s1,a1
    17ec:	448a0a13          	addi	s4,s4,1096 # 3448 <tetromino_shapes>
    17f0:	009407b3          	add	a5,s0,s1
    17f4:	00fa07b3          	add	a5,s4,a5
    17f8:	0007c903          	lbu	s2,0(a5)
    17fc:	00897793          	andi	a5,s2,8
    1800:	f2079ee3          	bnez	a5,173c <game_check_collision+0x134>
    1804:	00497793          	andi	a5,s2,4
    1808:	06078863          	beqz	a5,1878 <game_check_collision+0x270>
    180c:	00198793          	addi	a5,s3,1
    1810:	00900713          	li	a4,9
    1814:	f2f764e3          	bltu	a4,a5,173c <game_check_collision+0x134>
    1818:	01300793          	li	a5,19
    181c:	f287c0e3          	blt	a5,s0,173c <game_check_collision+0x134>
    1820:	04044463          	bltz	s0,1868 <game_check_collision+0x260>
    1824:	00040593          	mv	a1,s0
    1828:	00000513          	li	a0,0
    182c:	848ff0ef          	jal	874 <grid_is_occupied>
    1830:	f00516e3          	bnez	a0,173c <game_check_collision+0x134>
    1834:	00297793          	andi	a5,s2,2
    1838:	00100513          	li	a0,1
    183c:	08078063          	beqz	a5,18bc <game_check_collision+0x2b4>
    1840:	00040593          	mv	a1,s0
    1844:	830ff0ef          	jal	874 <grid_is_occupied>
    1848:	ee051ae3          	bnez	a0,173c <game_check_collision+0x134>
    184c:	00197913          	andi	s2,s2,1
    1850:	00398513          	addi	a0,s3,3
    1854:	00090a63          	beqz	s2,1868 <game_check_collision+0x260>
    1858:	00044863          	bltz	s0,1868 <game_check_collision+0x260>
    185c:	00040593          	mv	a1,s0
    1860:	814ff0ef          	jal	874 <grid_is_occupied>
    1864:	ec051ce3          	bnez	a0,173c <game_check_collision+0x134>
    1868:	00140413          	addi	s0,s0,1
    186c:	f95412e3          	bne	s0,s5,17f0 <game_check_collision+0x1e8>
    1870:	00000513          	li	a0,0
    1874:	ecdff06f          	j	1740 <game_check_collision+0x138>
    1878:	00297793          	andi	a5,s2,2
    187c:	02078063          	beqz	a5,189c <game_check_collision+0x294>
    1880:	00298513          	addi	a0,s3,2
    1884:	00900793          	li	a5,9
    1888:	eaa7eae3          	bltu	a5,a0,173c <game_check_collision+0x134>
    188c:	01300793          	li	a5,19
    1890:	ea87c6e3          	blt	a5,s0,173c <game_check_collision+0x134>
    1894:	fc044ae3          	bltz	s0,1868 <game_check_collision+0x260>
    1898:	fa9ff06f          	j	1840 <game_check_collision+0x238>
    189c:	00197913          	andi	s2,s2,1
    18a0:	fc0904e3          	beqz	s2,1868 <game_check_collision+0x260>
    18a4:	00398513          	addi	a0,s3,3
    18a8:	00900793          	li	a5,9
    18ac:	e8a7e8e3          	bltu	a5,a0,173c <game_check_collision+0x134>
    18b0:	01300793          	li	a5,19
    18b4:	fa87d2e3          	bge	a5,s0,1858 <game_check_collision+0x250>
    18b8:	e85ff06f          	j	173c <game_check_collision+0x134>
    18bc:	00197913          	andi	s2,s2,1
    18c0:	00200513          	li	a0,2
    18c4:	f8091ae3          	bnez	s2,1858 <game_check_collision+0x250>
    18c8:	fa1ff06f          	j	1868 <game_check_collision+0x260>

000018cc <game_spawn_piece>:
    18cc:	00003637          	lui	a2,0x3
    18d0:	44064683          	lbu	a3,1088(a2) # 3440 <next_id.0>
    18d4:	00700793          	li	a5,7
    18d8:	ff010113          	addi	sp,sp,-16
    18dc:	00368713          	addi	a4,a3,3
    18e0:	02f76733          	rem	a4,a4,a5
    18e4:	00812423          	sw	s0,8(sp)
    18e8:	00003437          	lui	s0,0x3
    18ec:	01212023          	sw	s2,0(sp)
    18f0:	44840413          	addi	s0,s0,1096 # 3448 <tetromino_shapes>
    18f4:	00469913          	slli	s2,a3,0x4
    18f8:	012407b3          	add	a5,s0,s2
    18fc:	00912223          	sw	s1,4(sp)
    1900:	0027c483          	lbu	s1,2(a5)
    1904:	000037b7          	lui	a5,0x3
    1908:	41878793          	addi	a5,a5,1048 # 3418 <current_piece>
    190c:	00112623          	sw	ra,12(sp)
    1910:	00d7a423          	sw	a3,8(a5)
    1914:	00300693          	li	a3,3
    1918:	00d7a023          	sw	a3,0(a5)
    191c:	ffe00693          	li	a3,-2
    1920:	0007a623          	sw	zero,12(a5)
    1924:	00d7a223          	sw	a3,4(a5)
    1928:	0084f793          	andi	a5,s1,8
    192c:	44e60023          	sb	a4,1088(a2)
    1930:	00078a63          	beqz	a5,1944 <game_spawn_piece+0x78>
    1934:	00000593          	li	a1,0
    1938:	00300513          	li	a0,3
    193c:	f39fe0ef          	jal	874 <grid_is_occupied>
    1940:	0c051663          	bnez	a0,1a0c <game_spawn_piece+0x140>
    1944:	0044f793          	andi	a5,s1,4
    1948:	00078a63          	beqz	a5,195c <game_spawn_piece+0x90>
    194c:	00000593          	li	a1,0
    1950:	00400513          	li	a0,4
    1954:	f21fe0ef          	jal	874 <grid_is_occupied>
    1958:	0a051a63          	bnez	a0,1a0c <game_spawn_piece+0x140>
    195c:	0024f793          	andi	a5,s1,2
    1960:	00078a63          	beqz	a5,1974 <game_spawn_piece+0xa8>
    1964:	00000593          	li	a1,0
    1968:	00500513          	li	a0,5
    196c:	f09fe0ef          	jal	874 <grid_is_occupied>
    1970:	08051e63          	bnez	a0,1a0c <game_spawn_piece+0x140>
    1974:	0014f493          	andi	s1,s1,1
    1978:	00048a63          	beqz	s1,198c <game_spawn_piece+0xc0>
    197c:	00000593          	li	a1,0
    1980:	00600513          	li	a0,6
    1984:	ef1fe0ef          	jal	874 <grid_is_occupied>
    1988:	08051263          	bnez	a0,1a0c <game_spawn_piece+0x140>
    198c:	01240433          	add	s0,s0,s2
    1990:	00344403          	lbu	s0,3(s0)
    1994:	00847793          	andi	a5,s0,8
    1998:	00078a63          	beqz	a5,19ac <game_spawn_piece+0xe0>
    199c:	00100593          	li	a1,1
    19a0:	00300513          	li	a0,3
    19a4:	ed1fe0ef          	jal	874 <grid_is_occupied>
    19a8:	06051263          	bnez	a0,1a0c <game_spawn_piece+0x140>
    19ac:	00447793          	andi	a5,s0,4
    19b0:	00078a63          	beqz	a5,19c4 <game_spawn_piece+0xf8>
    19b4:	00100593          	li	a1,1
    19b8:	00400513          	li	a0,4
    19bc:	eb9fe0ef          	jal	874 <grid_is_occupied>
    19c0:	04051663          	bnez	a0,1a0c <game_spawn_piece+0x140>
    19c4:	00247793          	andi	a5,s0,2
    19c8:	00078a63          	beqz	a5,19dc <game_spawn_piece+0x110>
    19cc:	00100593          	li	a1,1
    19d0:	00500513          	li	a0,5
    19d4:	ea1fe0ef          	jal	874 <grid_is_occupied>
    19d8:	02051a63          	bnez	a0,1a0c <game_spawn_piece+0x140>
    19dc:	00147413          	andi	s0,s0,1
    19e0:	00040a63          	beqz	s0,19f4 <game_spawn_piece+0x128>
    19e4:	00100593          	li	a1,1
    19e8:	00600513          	li	a0,6
    19ec:	e89fe0ef          	jal	874 <grid_is_occupied>
    19f0:	00051e63          	bnez	a0,1a0c <game_spawn_piece+0x140>
    19f4:	00c12083          	lw	ra,12(sp)
    19f8:	00812403          	lw	s0,8(sp)
    19fc:	00412483          	lw	s1,4(sp)
    1a00:	00012903          	lw	s2,0(sp)
    1a04:	01010113          	addi	sp,sp,16
    1a08:	00008067          	ret
    1a0c:	d95fe0ef          	jal	7a0 <grid_clear>
    1a10:	00c12083          	lw	ra,12(sp)
    1a14:	00812403          	lw	s0,8(sp)
    1a18:	000037b7          	lui	a5,0x3
    1a1c:	4407a223          	sw	zero,1092(a5) # 3444 <score>
    1a20:	00412483          	lw	s1,4(sp)
    1a24:	00012903          	lw	s2,0(sp)
    1a28:	01010113          	addi	sp,sp,16
    1a2c:	00008067          	ret

00001a30 <game_lock_piece>:
    1a30:	fe010113          	addi	sp,sp,-32
    1a34:	00812c23          	sw	s0,24(sp)
    1a38:	00003437          	lui	s0,0x3
    1a3c:	41840413          	addi	s0,s0,1048 # 3418 <current_piece>
    1a40:	00842603          	lw	a2,8(s0)
    1a44:	00c42703          	lw	a4,12(s0)
    1a48:	00912a23          	sw	s1,20(sp)
    1a4c:	00261793          	slli	a5,a2,0x2
    1a50:	00e787b3          	add	a5,a5,a4
    1a54:	000034b7          	lui	s1,0x3
    1a58:	44848493          	addi	s1,s1,1096 # 3448 <tetromino_shapes>
    1a5c:	00279793          	slli	a5,a5,0x2
    1a60:	00f487b3          	add	a5,s1,a5
    1a64:	0007c783          	lbu	a5,0(a5)
    1a68:	00112e23          	sw	ra,28(sp)
    1a6c:	01212823          	sw	s2,16(sp)
    1a70:	01312623          	sw	s3,12(sp)
    1a74:	0087f713          	andi	a4,a5,8
    1a78:	56071863          	bnez	a4,1fe8 <game_lock_piece+0x5b8>
    1a7c:	0047f713          	andi	a4,a5,4
    1a80:	52071863          	bnez	a4,1fb0 <game_lock_piece+0x580>
    1a84:	0027f713          	andi	a4,a5,2
    1a88:	4e071863          	bnez	a4,1f78 <game_lock_piece+0x548>
    1a8c:	0017f793          	andi	a5,a5,1
    1a90:	4c079663          	bnez	a5,1f5c <game_lock_piece+0x52c>
    1a94:	00842603          	lw	a2,8(s0)
    1a98:	00c42703          	lw	a4,12(s0)
    1a9c:	00261793          	slli	a5,a2,0x2
    1aa0:	00e787b3          	add	a5,a5,a4
    1aa4:	00279793          	slli	a5,a5,0x2
    1aa8:	00f487b3          	add	a5,s1,a5
    1aac:	0017c783          	lbu	a5,1(a5)
    1ab0:	0087f713          	andi	a4,a5,8
    1ab4:	46071863          	bnez	a4,1f24 <game_lock_piece+0x4f4>
    1ab8:	0047f713          	andi	a4,a5,4
    1abc:	42071663          	bnez	a4,1ee8 <game_lock_piece+0x4b8>
    1ac0:	0027f713          	andi	a4,a5,2
    1ac4:	3e071463          	bnez	a4,1eac <game_lock_piece+0x47c>
    1ac8:	0017f793          	andi	a5,a5,1
    1acc:	3c079063          	bnez	a5,1e8c <game_lock_piece+0x45c>
    1ad0:	00842603          	lw	a2,8(s0)
    1ad4:	00c42703          	lw	a4,12(s0)
    1ad8:	00261793          	slli	a5,a2,0x2
    1adc:	00e787b3          	add	a5,a5,a4
    1ae0:	00279793          	slli	a5,a5,0x2
    1ae4:	00f487b3          	add	a5,s1,a5
    1ae8:	0027c783          	lbu	a5,2(a5)
    1aec:	0087f713          	andi	a4,a5,8
    1af0:	36071263          	bnez	a4,1e54 <game_lock_piece+0x424>
    1af4:	0047f713          	andi	a4,a5,4
    1af8:	32071063          	bnez	a4,1e18 <game_lock_piece+0x3e8>
    1afc:	0027f713          	andi	a4,a5,2
    1b00:	2c071e63          	bnez	a4,1ddc <game_lock_piece+0x3ac>
    1b04:	0017f793          	andi	a5,a5,1
    1b08:	2a079a63          	bnez	a5,1dbc <game_lock_piece+0x38c>
    1b0c:	00842603          	lw	a2,8(s0)
    1b10:	00c42703          	lw	a4,12(s0)
    1b14:	00261793          	slli	a5,a2,0x2
    1b18:	00e787b3          	add	a5,a5,a4
    1b1c:	00279793          	slli	a5,a5,0x2
    1b20:	00f487b3          	add	a5,s1,a5
    1b24:	0037c783          	lbu	a5,3(a5)
    1b28:	0087f713          	andi	a4,a5,8
    1b2c:	24071c63          	bnez	a4,1d84 <game_lock_piece+0x354>
    1b30:	0047f713          	andi	a4,a5,4
    1b34:	20071a63          	bnez	a4,1d48 <game_lock_piece+0x318>
    1b38:	0027f713          	andi	a4,a5,2
    1b3c:	1c071863          	bnez	a4,1d0c <game_lock_piece+0x2dc>
    1b40:	0017f793          	andi	a5,a5,1
    1b44:	1a079463          	bnez	a5,1cec <game_lock_piece+0x2bc>
    1b48:	ef9fe0ef          	jal	a40 <grid_clear_full_lines>
    1b4c:	00100793          	li	a5,1
    1b50:	18f50463          	beq	a0,a5,1cd8 <game_lock_piece+0x2a8>
    1b54:	00200793          	li	a5,2
    1b58:	02f50463          	beq	a0,a5,1b80 <game_lock_piece+0x150>
    1b5c:	00300793          	li	a5,3
    1b60:	4af50e63          	beq	a0,a5,201c <game_lock_piece+0x5ec>
    1b64:	00400793          	li	a5,4
    1b68:	02f51463          	bne	a0,a5,1b90 <game_lock_piece+0x160>
    1b6c:	00003737          	lui	a4,0x3
    1b70:	44472783          	lw	a5,1092(a4) # 3444 <score>
    1b74:	4b078793          	addi	a5,a5,1200
    1b78:	44f72223          	sw	a5,1092(a4)
    1b7c:	0140006f          	j	1b90 <game_lock_piece+0x160>
    1b80:	00003737          	lui	a4,0x3
    1b84:	44472783          	lw	a5,1092(a4) # 3444 <score>
    1b88:	06478793          	addi	a5,a5,100
    1b8c:	44f72223          	sw	a5,1092(a4)
    1b90:	000036b7          	lui	a3,0x3
    1b94:	4406c703          	lbu	a4,1088(a3) # 3440 <next_id.0>
    1b98:	00700613          	li	a2,7
    1b9c:	00042623          	sw	zero,12(s0)
    1ba0:	00370793          	addi	a5,a4,3
    1ba4:	02c7e7b3          	rem	a5,a5,a2
    1ba8:	00471993          	slli	s3,a4,0x4
    1bac:	01348633          	add	a2,s1,s3
    1bb0:	00264903          	lbu	s2,2(a2)
    1bb4:	00e42423          	sw	a4,8(s0)
    1bb8:	00300713          	li	a4,3
    1bbc:	00e42023          	sw	a4,0(s0)
    1bc0:	ffe00713          	li	a4,-2
    1bc4:	00e42223          	sw	a4,4(s0)
    1bc8:	00897713          	andi	a4,s2,8
    1bcc:	44f68023          	sb	a5,1088(a3)
    1bd0:	00070a63          	beqz	a4,1be4 <game_lock_piece+0x1b4>
    1bd4:	00000593          	li	a1,0
    1bd8:	00300513          	li	a0,3
    1bdc:	c99fe0ef          	jal	874 <grid_is_occupied>
    1be0:	0c051863          	bnez	a0,1cb0 <game_lock_piece+0x280>
    1be4:	00497793          	andi	a5,s2,4
    1be8:	00078a63          	beqz	a5,1bfc <game_lock_piece+0x1cc>
    1bec:	00000593          	li	a1,0
    1bf0:	00400513          	li	a0,4
    1bf4:	c81fe0ef          	jal	874 <grid_is_occupied>
    1bf8:	0a051c63          	bnez	a0,1cb0 <game_lock_piece+0x280>
    1bfc:	00297793          	andi	a5,s2,2
    1c00:	00078a63          	beqz	a5,1c14 <game_lock_piece+0x1e4>
    1c04:	00000593          	li	a1,0
    1c08:	00500513          	li	a0,5
    1c0c:	c69fe0ef          	jal	874 <grid_is_occupied>
    1c10:	0a051063          	bnez	a0,1cb0 <game_lock_piece+0x280>
    1c14:	00197913          	andi	s2,s2,1
    1c18:	00090a63          	beqz	s2,1c2c <game_lock_piece+0x1fc>
    1c1c:	00000593          	li	a1,0
    1c20:	00600513          	li	a0,6
    1c24:	c51fe0ef          	jal	874 <grid_is_occupied>
    1c28:	08051463          	bnez	a0,1cb0 <game_lock_piece+0x280>
    1c2c:	013484b3          	add	s1,s1,s3
    1c30:	0034c403          	lbu	s0,3(s1)
    1c34:	00847793          	andi	a5,s0,8
    1c38:	00078a63          	beqz	a5,1c4c <game_lock_piece+0x21c>
    1c3c:	00100593          	li	a1,1
    1c40:	00300513          	li	a0,3
    1c44:	c31fe0ef          	jal	874 <grid_is_occupied>
    1c48:	06051463          	bnez	a0,1cb0 <game_lock_piece+0x280>
    1c4c:	00447793          	andi	a5,s0,4
    1c50:	00078a63          	beqz	a5,1c64 <game_lock_piece+0x234>
    1c54:	00100593          	li	a1,1
    1c58:	00400513          	li	a0,4
    1c5c:	c19fe0ef          	jal	874 <grid_is_occupied>
    1c60:	04051863          	bnez	a0,1cb0 <game_lock_piece+0x280>
    1c64:	00247793          	andi	a5,s0,2
    1c68:	00078a63          	beqz	a5,1c7c <game_lock_piece+0x24c>
    1c6c:	00100593          	li	a1,1
    1c70:	00500513          	li	a0,5
    1c74:	c01fe0ef          	jal	874 <grid_is_occupied>
    1c78:	02051c63          	bnez	a0,1cb0 <game_lock_piece+0x280>
    1c7c:	00147413          	andi	s0,s0,1
    1c80:	00040a63          	beqz	s0,1c94 <game_lock_piece+0x264>
    1c84:	00100593          	li	a1,1
    1c88:	00600513          	li	a0,6
    1c8c:	be9fe0ef          	jal	874 <grid_is_occupied>
    1c90:	02051063          	bnez	a0,1cb0 <game_lock_piece+0x280>
    1c94:	01c12083          	lw	ra,28(sp)
    1c98:	01812403          	lw	s0,24(sp)
    1c9c:	01412483          	lw	s1,20(sp)
    1ca0:	01012903          	lw	s2,16(sp)
    1ca4:	00c12983          	lw	s3,12(sp)
    1ca8:	02010113          	addi	sp,sp,32
    1cac:	00008067          	ret
    1cb0:	af1fe0ef          	jal	7a0 <grid_clear>
    1cb4:	01c12083          	lw	ra,28(sp)
    1cb8:	01812403          	lw	s0,24(sp)
    1cbc:	000037b7          	lui	a5,0x3
    1cc0:	4407a223          	sw	zero,1092(a5) # 3444 <score>
    1cc4:	01412483          	lw	s1,20(sp)
    1cc8:	01012903          	lw	s2,16(sp)
    1ccc:	00c12983          	lw	s3,12(sp)
    1cd0:	02010113          	addi	sp,sp,32
    1cd4:	00008067          	ret
    1cd8:	00003737          	lui	a4,0x3
    1cdc:	44472783          	lw	a5,1092(a4) # 3444 <score>
    1ce0:	02878793          	addi	a5,a5,40
    1ce4:	44f72223          	sw	a5,1092(a4)
    1ce8:	ea9ff06f          	j	1b90 <game_lock_piece+0x160>
    1cec:	00442583          	lw	a1,4(s0)
    1cf0:	00042503          	lw	a0,0(s0)
    1cf4:	00160613          	addi	a2,a2,1
    1cf8:	0ff67613          	zext.b	a2,a2
    1cfc:	00358593          	addi	a1,a1,3
    1d00:	00350513          	addi	a0,a0,3
    1d04:	bc1fe0ef          	jal	8c4 <grid_set>
    1d08:	e41ff06f          	j	1b48 <game_lock_piece+0x118>
    1d0c:	00442583          	lw	a1,4(s0)
    1d10:	00042503          	lw	a0,0(s0)
    1d14:	00160613          	addi	a2,a2,1
    1d18:	0ff67613          	zext.b	a2,a2
    1d1c:	00358593          	addi	a1,a1,3
    1d20:	00250513          	addi	a0,a0,2
    1d24:	ba1fe0ef          	jal	8c4 <grid_set>
    1d28:	00842603          	lw	a2,8(s0)
    1d2c:	00c42703          	lw	a4,12(s0)
    1d30:	00261793          	slli	a5,a2,0x2
    1d34:	00e787b3          	add	a5,a5,a4
    1d38:	00279793          	slli	a5,a5,0x2
    1d3c:	00f487b3          	add	a5,s1,a5
    1d40:	0037c783          	lbu	a5,3(a5)
    1d44:	dfdff06f          	j	1b40 <game_lock_piece+0x110>
    1d48:	00442583          	lw	a1,4(s0)
    1d4c:	00042503          	lw	a0,0(s0)
    1d50:	00160613          	addi	a2,a2,1
    1d54:	0ff67613          	zext.b	a2,a2
    1d58:	00358593          	addi	a1,a1,3
    1d5c:	00150513          	addi	a0,a0,1
    1d60:	b65fe0ef          	jal	8c4 <grid_set>
    1d64:	00842603          	lw	a2,8(s0)
    1d68:	00c42703          	lw	a4,12(s0)
    1d6c:	00261793          	slli	a5,a2,0x2
    1d70:	00e787b3          	add	a5,a5,a4
    1d74:	00279793          	slli	a5,a5,0x2
    1d78:	00f487b3          	add	a5,s1,a5
    1d7c:	0037c783          	lbu	a5,3(a5)
    1d80:	db9ff06f          	j	1b38 <game_lock_piece+0x108>
    1d84:	00442583          	lw	a1,4(s0)
    1d88:	00042503          	lw	a0,0(s0)
    1d8c:	00160613          	addi	a2,a2,1
    1d90:	0ff67613          	zext.b	a2,a2
    1d94:	00358593          	addi	a1,a1,3
    1d98:	b2dfe0ef          	jal	8c4 <grid_set>
    1d9c:	00842603          	lw	a2,8(s0)
    1da0:	00c42703          	lw	a4,12(s0)
    1da4:	00261793          	slli	a5,a2,0x2
    1da8:	00e787b3          	add	a5,a5,a4
    1dac:	00279793          	slli	a5,a5,0x2
    1db0:	00f487b3          	add	a5,s1,a5
    1db4:	0037c783          	lbu	a5,3(a5)
    1db8:	d79ff06f          	j	1b30 <game_lock_piece+0x100>
    1dbc:	00442583          	lw	a1,4(s0)
    1dc0:	00042503          	lw	a0,0(s0)
    1dc4:	00160613          	addi	a2,a2,1
    1dc8:	0ff67613          	zext.b	a2,a2
    1dcc:	00258593          	addi	a1,a1,2
    1dd0:	00350513          	addi	a0,a0,3
    1dd4:	af1fe0ef          	jal	8c4 <grid_set>
    1dd8:	d35ff06f          	j	1b0c <game_lock_piece+0xdc>
    1ddc:	00442583          	lw	a1,4(s0)
    1de0:	00042503          	lw	a0,0(s0)
    1de4:	00160613          	addi	a2,a2,1
    1de8:	0ff67613          	zext.b	a2,a2
    1dec:	00258593          	addi	a1,a1,2
    1df0:	00250513          	addi	a0,a0,2
    1df4:	ad1fe0ef          	jal	8c4 <grid_set>
    1df8:	00842603          	lw	a2,8(s0)
    1dfc:	00c42703          	lw	a4,12(s0)
    1e00:	00261793          	slli	a5,a2,0x2
    1e04:	00e787b3          	add	a5,a5,a4
    1e08:	00279793          	slli	a5,a5,0x2
    1e0c:	00f487b3          	add	a5,s1,a5
    1e10:	0027c783          	lbu	a5,2(a5)
    1e14:	cf1ff06f          	j	1b04 <game_lock_piece+0xd4>
    1e18:	00442583          	lw	a1,4(s0)
    1e1c:	00042503          	lw	a0,0(s0)
    1e20:	00160613          	addi	a2,a2,1
    1e24:	0ff67613          	zext.b	a2,a2
    1e28:	00258593          	addi	a1,a1,2
    1e2c:	00150513          	addi	a0,a0,1
    1e30:	a95fe0ef          	jal	8c4 <grid_set>
    1e34:	00842603          	lw	a2,8(s0)
    1e38:	00c42703          	lw	a4,12(s0)
    1e3c:	00261793          	slli	a5,a2,0x2
    1e40:	00e787b3          	add	a5,a5,a4
    1e44:	00279793          	slli	a5,a5,0x2
    1e48:	00f487b3          	add	a5,s1,a5
    1e4c:	0027c783          	lbu	a5,2(a5)
    1e50:	cadff06f          	j	1afc <game_lock_piece+0xcc>
    1e54:	00442583          	lw	a1,4(s0)
    1e58:	00042503          	lw	a0,0(s0)
    1e5c:	00160613          	addi	a2,a2,1
    1e60:	0ff67613          	zext.b	a2,a2
    1e64:	00258593          	addi	a1,a1,2
    1e68:	a5dfe0ef          	jal	8c4 <grid_set>
    1e6c:	00842603          	lw	a2,8(s0)
    1e70:	00c42703          	lw	a4,12(s0)
    1e74:	00261793          	slli	a5,a2,0x2
    1e78:	00e787b3          	add	a5,a5,a4
    1e7c:	00279793          	slli	a5,a5,0x2
    1e80:	00f487b3          	add	a5,s1,a5
    1e84:	0027c783          	lbu	a5,2(a5)
    1e88:	c6dff06f          	j	1af4 <game_lock_piece+0xc4>
    1e8c:	00442583          	lw	a1,4(s0)
    1e90:	00042503          	lw	a0,0(s0)
    1e94:	00160613          	addi	a2,a2,1
    1e98:	0ff67613          	zext.b	a2,a2
    1e9c:	00158593          	addi	a1,a1,1
    1ea0:	00350513          	addi	a0,a0,3
    1ea4:	a21fe0ef          	jal	8c4 <grid_set>
    1ea8:	c29ff06f          	j	1ad0 <game_lock_piece+0xa0>
    1eac:	00442583          	lw	a1,4(s0)
    1eb0:	00042503          	lw	a0,0(s0)
    1eb4:	00160613          	addi	a2,a2,1
    1eb8:	0ff67613          	zext.b	a2,a2
    1ebc:	00158593          	addi	a1,a1,1
    1ec0:	00250513          	addi	a0,a0,2
    1ec4:	a01fe0ef          	jal	8c4 <grid_set>
    1ec8:	00842603          	lw	a2,8(s0)
    1ecc:	00c42703          	lw	a4,12(s0)
    1ed0:	00261793          	slli	a5,a2,0x2
    1ed4:	00e787b3          	add	a5,a5,a4
    1ed8:	00279793          	slli	a5,a5,0x2
    1edc:	00f487b3          	add	a5,s1,a5
    1ee0:	0017c783          	lbu	a5,1(a5)
    1ee4:	be5ff06f          	j	1ac8 <game_lock_piece+0x98>
    1ee8:	00442583          	lw	a1,4(s0)
    1eec:	00042503          	lw	a0,0(s0)
    1ef0:	00160613          	addi	a2,a2,1
    1ef4:	0ff67613          	zext.b	a2,a2
    1ef8:	00158593          	addi	a1,a1,1
    1efc:	00150513          	addi	a0,a0,1
    1f00:	9c5fe0ef          	jal	8c4 <grid_set>
    1f04:	00842603          	lw	a2,8(s0)
    1f08:	00c42703          	lw	a4,12(s0)
    1f0c:	00261793          	slli	a5,a2,0x2
    1f10:	00e787b3          	add	a5,a5,a4
    1f14:	00279793          	slli	a5,a5,0x2
    1f18:	00f487b3          	add	a5,s1,a5
    1f1c:	0017c783          	lbu	a5,1(a5)
    1f20:	ba1ff06f          	j	1ac0 <game_lock_piece+0x90>
    1f24:	00442583          	lw	a1,4(s0)
    1f28:	00042503          	lw	a0,0(s0)
    1f2c:	00160613          	addi	a2,a2,1
    1f30:	0ff67613          	zext.b	a2,a2
    1f34:	00158593          	addi	a1,a1,1
    1f38:	98dfe0ef          	jal	8c4 <grid_set>
    1f3c:	00842603          	lw	a2,8(s0)
    1f40:	00c42703          	lw	a4,12(s0)
    1f44:	00261793          	slli	a5,a2,0x2
    1f48:	00e787b3          	add	a5,a5,a4
    1f4c:	00279793          	slli	a5,a5,0x2
    1f50:	00f487b3          	add	a5,s1,a5
    1f54:	0017c783          	lbu	a5,1(a5)
    1f58:	b61ff06f          	j	1ab8 <game_lock_piece+0x88>
    1f5c:	00042503          	lw	a0,0(s0)
    1f60:	00442583          	lw	a1,4(s0)
    1f64:	00160613          	addi	a2,a2,1
    1f68:	0ff67613          	zext.b	a2,a2
    1f6c:	00350513          	addi	a0,a0,3
    1f70:	955fe0ef          	jal	8c4 <grid_set>
    1f74:	b21ff06f          	j	1a94 <game_lock_piece+0x64>
    1f78:	00042503          	lw	a0,0(s0)
    1f7c:	00442583          	lw	a1,4(s0)
    1f80:	00160613          	addi	a2,a2,1
    1f84:	0ff67613          	zext.b	a2,a2
    1f88:	00250513          	addi	a0,a0,2
    1f8c:	939fe0ef          	jal	8c4 <grid_set>
    1f90:	00842603          	lw	a2,8(s0)
    1f94:	00c42703          	lw	a4,12(s0)
    1f98:	00261793          	slli	a5,a2,0x2
    1f9c:	00e787b3          	add	a5,a5,a4
    1fa0:	00279793          	slli	a5,a5,0x2
    1fa4:	00f487b3          	add	a5,s1,a5
    1fa8:	0007c783          	lbu	a5,0(a5)
    1fac:	ae1ff06f          	j	1a8c <game_lock_piece+0x5c>
    1fb0:	00042503          	lw	a0,0(s0)
    1fb4:	00442583          	lw	a1,4(s0)
    1fb8:	00160613          	addi	a2,a2,1
    1fbc:	0ff67613          	zext.b	a2,a2
    1fc0:	00150513          	addi	a0,a0,1
    1fc4:	901fe0ef          	jal	8c4 <grid_set>
    1fc8:	00842603          	lw	a2,8(s0)
    1fcc:	00c42703          	lw	a4,12(s0)
    1fd0:	00261793          	slli	a5,a2,0x2
    1fd4:	00e787b3          	add	a5,a5,a4
    1fd8:	00279793          	slli	a5,a5,0x2
    1fdc:	00f487b3          	add	a5,s1,a5
    1fe0:	0007c783          	lbu	a5,0(a5)
    1fe4:	aa1ff06f          	j	1a84 <game_lock_piece+0x54>
    1fe8:	00442583          	lw	a1,4(s0)
    1fec:	00042503          	lw	a0,0(s0)
    1ff0:	00160613          	addi	a2,a2,1
    1ff4:	0ff67613          	zext.b	a2,a2
    1ff8:	8cdfe0ef          	jal	8c4 <grid_set>
    1ffc:	00842603          	lw	a2,8(s0)
    2000:	00c42703          	lw	a4,12(s0)
    2004:	00261793          	slli	a5,a2,0x2
    2008:	00e787b3          	add	a5,a5,a4
    200c:	00279793          	slli	a5,a5,0x2
    2010:	00f487b3          	add	a5,s1,a5
    2014:	0007c783          	lbu	a5,0(a5)
    2018:	a65ff06f          	j	1a7c <game_lock_piece+0x4c>
    201c:	00003737          	lui	a4,0x3
    2020:	44472783          	lw	a5,1092(a4) # 3444 <score>
    2024:	12c78793          	addi	a5,a5,300
    2028:	44f72223          	sw	a5,1092(a4)
    202c:	b65ff06f          	j	1b90 <game_lock_piece+0x160>

00002030 <game_rotate>:
    2030:	fd010113          	addi	sp,sp,-48
    2034:	01412c23          	sw	s4,24(sp)
    2038:	00003a37          	lui	s4,0x3
    203c:	418a0a13          	addi	s4,s4,1048 # 3418 <current_piece>
    2040:	01312e23          	sw	s3,28(sp)
    2044:	00ca2983          	lw	s3,12(s4)
    2048:	01512a23          	sw	s5,20(sp)
    204c:	000a2a83          	lw	s5,0(s4)
    2050:	02812423          	sw	s0,40(sp)
    2054:	00198993          	addi	s3,s3,1
    2058:	02112623          	sw	ra,44(sp)
    205c:	02912223          	sw	s1,36(sp)
    2060:	03212023          	sw	s2,32(sp)
    2064:	01612823          	sw	s6,16(sp)
    2068:	01712623          	sw	s7,12(sp)
    206c:	00900713          	li	a4,9
    2070:	004a2403          	lw	s0,4(s4)
    2074:	008a2783          	lw	a5,8(s4)
    2078:	0039f993          	andi	s3,s3,3
    207c:	19576a63          	bltu	a4,s5,2210 <game_rotate+0x1e0>
    2080:	00279913          	slli	s2,a5,0x2
    2084:	01390933          	add	s2,s2,s3
    2088:	00291913          	slli	s2,s2,0x2
    208c:	00003b37          	lui	s6,0x3
    2090:	01812423          	sw	s8,8(sp)
    2094:	00440b93          	addi	s7,s0,4
    2098:	40890933          	sub	s2,s2,s0
    209c:	448b0b13          	addi	s6,s6,1096 # 3448 <tetromino_shapes>
    20a0:	01300c13          	li	s8,19
    20a4:	012407b3          	add	a5,s0,s2
    20a8:	00fb07b3          	add	a5,s6,a5
    20ac:	0007c483          	lbu	s1,0(a5)
    20b0:	0084f793          	andi	a5,s1,8
    20b4:	0e078e63          	beqz	a5,21b0 <game_rotate+0x180>
    20b8:	0c8c4463          	blt	s8,s0,2180 <game_rotate+0x150>
    20bc:	04045463          	bgez	s0,2104 <game_rotate+0xd4>
    20c0:	0044f793          	andi	a5,s1,4
    20c4:	06078a63          	beqz	a5,2138 <game_rotate+0x108>
    20c8:	00900793          	li	a5,9
    20cc:	0afa8a63          	beq	s5,a5,2180 <game_rotate+0x150>
    20d0:	0024f793          	andi	a5,s1,2
    20d4:	0e078e63          	beqz	a5,21d0 <game_rotate+0x1a0>
    20d8:	00800793          	li	a5,8
    20dc:	0afa8263          	beq	s5,a5,2180 <game_rotate+0x150>
    20e0:	0014f493          	andi	s1,s1,1
    20e4:	00048663          	beqz	s1,20f0 <game_rotate+0xc0>
    20e8:	00700793          	li	a5,7
    20ec:	08fa8a63          	beq	s5,a5,2180 <game_rotate+0x150>
    20f0:	00140413          	addi	s0,s0,1
    20f4:	fb7418e3          	bne	s0,s7,20a4 <game_rotate+0x74>
    20f8:	00812c03          	lw	s8,8(sp)
    20fc:	013a2623          	sw	s3,12(s4)
    2100:	0840006f          	j	2184 <game_rotate+0x154>
    2104:	00040593          	mv	a1,s0
    2108:	000a8513          	mv	a0,s5
    210c:	f68fe0ef          	jal	874 <grid_is_occupied>
    2110:	06051863          	bnez	a0,2180 <game_rotate+0x150>
    2114:	0044f793          	andi	a5,s1,4
    2118:	0c078c63          	beqz	a5,21f0 <game_rotate+0x1c0>
    211c:	001a8513          	addi	a0,s5,1
    2120:	00a00793          	li	a5,10
    2124:	04f50e63          	beq	a0,a5,2180 <game_rotate+0x150>
    2128:	fa0444e3          	bltz	s0,20d0 <game_rotate+0xa0>
    212c:	00040593          	mv	a1,s0
    2130:	f44fe0ef          	jal	874 <grid_is_occupied>
    2134:	04051663          	bnez	a0,2180 <game_rotate+0x150>
    2138:	0024f793          	andi	a5,s1,2
    213c:	08078a63          	beqz	a5,21d0 <game_rotate+0x1a0>
    2140:	002a8513          	addi	a0,s5,2
    2144:	00900793          	li	a5,9
    2148:	02a7cc63          	blt	a5,a0,2180 <game_rotate+0x150>
    214c:	f8044ae3          	bltz	s0,20e0 <game_rotate+0xb0>
    2150:	00040593          	mv	a1,s0
    2154:	f20fe0ef          	jal	874 <grid_is_occupied>
    2158:	02051463          	bnez	a0,2180 <game_rotate+0x150>
    215c:	0014f493          	andi	s1,s1,1
    2160:	f80488e3          	beqz	s1,20f0 <game_rotate+0xc0>
    2164:	003a8513          	addi	a0,s5,3
    2168:	00900793          	li	a5,9
    216c:	00a7ca63          	blt	a5,a0,2180 <game_rotate+0x150>
    2170:	f80440e3          	bltz	s0,20f0 <game_rotate+0xc0>
    2174:	00040593          	mv	a1,s0
    2178:	efcfe0ef          	jal	874 <grid_is_occupied>
    217c:	f6050ae3          	beqz	a0,20f0 <game_rotate+0xc0>
    2180:	00812c03          	lw	s8,8(sp)
    2184:	02c12083          	lw	ra,44(sp)
    2188:	02812403          	lw	s0,40(sp)
    218c:	02412483          	lw	s1,36(sp)
    2190:	02012903          	lw	s2,32(sp)
    2194:	01c12983          	lw	s3,28(sp)
    2198:	01812a03          	lw	s4,24(sp)
    219c:	01412a83          	lw	s5,20(sp)
    21a0:	01012b03          	lw	s6,16(sp)
    21a4:	00c12b83          	lw	s7,12(sp)
    21a8:	03010113          	addi	sp,sp,48
    21ac:	00008067          	ret
    21b0:	0044f793          	andi	a5,s1,4
    21b4:	02078e63          	beqz	a5,21f0 <game_rotate+0x1c0>
    21b8:	001a8513          	addi	a0,s5,1
    21bc:	00a00793          	li	a5,10
    21c0:	fcf500e3          	beq	a0,a5,2180 <game_rotate+0x150>
    21c4:	01300793          	li	a5,19
    21c8:	f687d0e3          	bge	a5,s0,2128 <game_rotate+0xf8>
    21cc:	fb5ff06f          	j	2180 <game_rotate+0x150>
    21d0:	0014f493          	andi	s1,s1,1
    21d4:	f0048ee3          	beqz	s1,20f0 <game_rotate+0xc0>
    21d8:	003a8513          	addi	a0,s5,3
    21dc:	00900793          	li	a5,9
    21e0:	faa7c0e3          	blt	a5,a0,2180 <game_rotate+0x150>
    21e4:	01300793          	li	a5,19
    21e8:	f887d4e3          	bge	a5,s0,2170 <game_rotate+0x140>
    21ec:	f95ff06f          	j	2180 <game_rotate+0x150>
    21f0:	0024f793          	andi	a5,s1,2
    21f4:	fc078ee3          	beqz	a5,21d0 <game_rotate+0x1a0>
    21f8:	002a8513          	addi	a0,s5,2
    21fc:	00900793          	li	a5,9
    2200:	f8a7c0e3          	blt	a5,a0,2180 <game_rotate+0x150>
    2204:	01300793          	li	a5,19
    2208:	f687cce3          	blt	a5,s0,2180 <game_rotate+0x150>
    220c:	f41ff06f          	j	214c <game_rotate+0x11c>
    2210:	00279493          	slli	s1,a5,0x2
    2214:	013484b3          	add	s1,s1,s3
    2218:	00249493          	slli	s1,s1,0x2
    221c:	00003b37          	lui	s6,0x3
    2220:	00440b93          	addi	s7,s0,4
    2224:	408484b3          	sub	s1,s1,s0
    2228:	448b0b13          	addi	s6,s6,1096 # 3448 <tetromino_shapes>
    222c:	009407b3          	add	a5,s0,s1
    2230:	00fb07b3          	add	a5,s6,a5
    2234:	0007c903          	lbu	s2,0(a5)
    2238:	00897793          	andi	a5,s2,8
    223c:	f40794e3          	bnez	a5,2184 <game_rotate+0x154>
    2240:	00497793          	andi	a5,s2,4
    2244:	06078863          	beqz	a5,22b4 <game_rotate+0x284>
    2248:	001a8793          	addi	a5,s5,1
    224c:	00900713          	li	a4,9
    2250:	f2f76ae3          	bltu	a4,a5,2184 <game_rotate+0x154>
    2254:	01300793          	li	a5,19
    2258:	f287c6e3          	blt	a5,s0,2184 <game_rotate+0x154>
    225c:	04044463          	bltz	s0,22a4 <game_rotate+0x274>
    2260:	00040593          	mv	a1,s0
    2264:	00000513          	li	a0,0
    2268:	e0cfe0ef          	jal	874 <grid_is_occupied>
    226c:	f0051ce3          	bnez	a0,2184 <game_rotate+0x154>
    2270:	00297793          	andi	a5,s2,2
    2274:	00100513          	li	a0,1
    2278:	08078063          	beqz	a5,22f8 <game_rotate+0x2c8>
    227c:	00040593          	mv	a1,s0
    2280:	df4fe0ef          	jal	874 <grid_is_occupied>
    2284:	f00510e3          	bnez	a0,2184 <game_rotate+0x154>
    2288:	00197913          	andi	s2,s2,1
    228c:	003a8513          	addi	a0,s5,3
    2290:	00090a63          	beqz	s2,22a4 <game_rotate+0x274>
    2294:	00044863          	bltz	s0,22a4 <game_rotate+0x274>
    2298:	00040593          	mv	a1,s0
    229c:	dd8fe0ef          	jal	874 <grid_is_occupied>
    22a0:	ee0512e3          	bnez	a0,2184 <game_rotate+0x154>
    22a4:	00140413          	addi	s0,s0,1
    22a8:	f97412e3          	bne	s0,s7,222c <game_rotate+0x1fc>
    22ac:	013a2623          	sw	s3,12(s4)
    22b0:	ed5ff06f          	j	2184 <game_rotate+0x154>
    22b4:	00297793          	andi	a5,s2,2
    22b8:	02078063          	beqz	a5,22d8 <game_rotate+0x2a8>
    22bc:	002a8513          	addi	a0,s5,2
    22c0:	00900793          	li	a5,9
    22c4:	eca7e0e3          	bltu	a5,a0,2184 <game_rotate+0x154>
    22c8:	01300793          	li	a5,19
    22cc:	ea87cce3          	blt	a5,s0,2184 <game_rotate+0x154>
    22d0:	fc044ae3          	bltz	s0,22a4 <game_rotate+0x274>
    22d4:	fa9ff06f          	j	227c <game_rotate+0x24c>
    22d8:	00197913          	andi	s2,s2,1
    22dc:	fc0904e3          	beqz	s2,22a4 <game_rotate+0x274>
    22e0:	003a8513          	addi	a0,s5,3
    22e4:	00900793          	li	a5,9
    22e8:	e8a7eee3          	bltu	a5,a0,2184 <game_rotate+0x154>
    22ec:	01300793          	li	a5,19
    22f0:	fa87d2e3          	bge	a5,s0,2294 <game_rotate+0x264>
    22f4:	e91ff06f          	j	2184 <game_rotate+0x154>
    22f8:	00197913          	andi	s2,s2,1
    22fc:	00200513          	li	a0,2
    2300:	f8091ae3          	bnez	s2,2294 <game_rotate+0x264>
    2304:	fa1ff06f          	j	22a4 <game_rotate+0x274>

00002308 <game_move_left>:
    2308:	fd010113          	addi	sp,sp,-48
    230c:	01312e23          	sw	s3,28(sp)
    2310:	000039b7          	lui	s3,0x3
    2314:	41898993          	addi	s3,s3,1048 # 3418 <current_piece>
    2318:	01512a23          	sw	s5,20(sp)
    231c:	0009aa83          	lw	s5,0(s3)
    2320:	02812423          	sw	s0,40(sp)
    2324:	01412c23          	sw	s4,24(sp)
    2328:	02112623          	sw	ra,44(sp)
    232c:	02912223          	sw	s1,36(sp)
    2330:	03212023          	sw	s2,32(sp)
    2334:	01612823          	sw	s6,16(sp)
    2338:	00900693          	li	a3,9
    233c:	fffa8a13          	addi	s4,s5,-1
    2340:	0049a403          	lw	s0,4(s3)
    2344:	0089a783          	lw	a5,8(s3)
    2348:	00c9a703          	lw	a4,12(s3)
    234c:	1b46e263          	bltu	a3,s4,24f0 <game_move_left+0x1e8>
    2350:	00279913          	slli	s2,a5,0x2
    2354:	00e90933          	add	s2,s2,a4
    2358:	00291913          	slli	s2,s2,0x2
    235c:	00003b37          	lui	s6,0x3
    2360:	01712623          	sw	s7,12(sp)
    2364:	01812423          	sw	s8,8(sp)
    2368:	00440b93          	addi	s7,s0,4
    236c:	40890933          	sub	s2,s2,s0
    2370:	448b0b13          	addi	s6,s6,1096 # 3448 <tetromino_shapes>
    2374:	01300c13          	li	s8,19
    2378:	012407b3          	add	a5,s0,s2
    237c:	00fb07b3          	add	a5,s6,a5
    2380:	0007c483          	lbu	s1,0(a5)
    2384:	0084f793          	andi	a5,s1,8
    2388:	10078263          	beqz	a5,248c <game_move_left+0x184>
    238c:	0c8c4863          	blt	s8,s0,245c <game_move_left+0x154>
    2390:	04045a63          	bgez	s0,23e4 <game_move_left+0xdc>
    2394:	0044f793          	andi	a5,s1,4
    2398:	06078e63          	beqz	a5,2414 <game_move_left+0x10c>
    239c:	00a00793          	li	a5,10
    23a0:	0afa8e63          	beq	s5,a5,245c <game_move_left+0x154>
    23a4:	0024f793          	andi	a5,s1,2
    23a8:	10078463          	beqz	a5,24b0 <game_move_left+0x1a8>
    23ac:	00900793          	li	a5,9
    23b0:	0afa8663          	beq	s5,a5,245c <game_move_left+0x154>
    23b4:	0014f493          	andi	s1,s1,1
    23b8:	00048663          	beqz	s1,23c4 <game_move_left+0xbc>
    23bc:	00800793          	li	a5,8
    23c0:	08fa8e63          	beq	s5,a5,245c <game_move_left+0x154>
    23c4:	00140413          	addi	s0,s0,1
    23c8:	fb7418e3          	bne	s0,s7,2378 <game_move_left+0x70>
    23cc:	00c12b83          	lw	s7,12(sp)
    23d0:	00812c03          	lw	s8,8(sp)
    23d4:	0009a783          	lw	a5,0(s3)
    23d8:	fff78793          	addi	a5,a5,-1
    23dc:	00f9a023          	sw	a5,0(s3)
    23e0:	0840006f          	j	2464 <game_move_left+0x15c>
    23e4:	00040593          	mv	a1,s0
    23e8:	000a0513          	mv	a0,s4
    23ec:	c88fe0ef          	jal	874 <grid_is_occupied>
    23f0:	06051663          	bnez	a0,245c <game_move_left+0x154>
    23f4:	0044f793          	andi	a5,s1,4
    23f8:	0c078c63          	beqz	a5,24d0 <game_move_left+0x1c8>
    23fc:	00a00793          	li	a5,10
    2400:	04fa8e63          	beq	s5,a5,245c <game_move_left+0x154>
    2404:	00040593          	mv	a1,s0
    2408:	000a8513          	mv	a0,s5
    240c:	c68fe0ef          	jal	874 <grid_is_occupied>
    2410:	04051663          	bnez	a0,245c <game_move_left+0x154>
    2414:	0024f793          	andi	a5,s1,2
    2418:	08078c63          	beqz	a5,24b0 <game_move_left+0x1a8>
    241c:	001a8513          	addi	a0,s5,1
    2420:	00900793          	li	a5,9
    2424:	02a7cc63          	blt	a5,a0,245c <game_move_left+0x154>
    2428:	f80446e3          	bltz	s0,23b4 <game_move_left+0xac>
    242c:	00040593          	mv	a1,s0
    2430:	c44fe0ef          	jal	874 <grid_is_occupied>
    2434:	02051463          	bnez	a0,245c <game_move_left+0x154>
    2438:	0014f493          	andi	s1,s1,1
    243c:	f80484e3          	beqz	s1,23c4 <game_move_left+0xbc>
    2440:	002a8513          	addi	a0,s5,2
    2444:	00900793          	li	a5,9
    2448:	00a7ca63          	blt	a5,a0,245c <game_move_left+0x154>
    244c:	f6044ce3          	bltz	s0,23c4 <game_move_left+0xbc>
    2450:	00040593          	mv	a1,s0
    2454:	c20fe0ef          	jal	874 <grid_is_occupied>
    2458:	f60506e3          	beqz	a0,23c4 <game_move_left+0xbc>
    245c:	00c12b83          	lw	s7,12(sp)
    2460:	00812c03          	lw	s8,8(sp)
    2464:	02c12083          	lw	ra,44(sp)
    2468:	02812403          	lw	s0,40(sp)
    246c:	02412483          	lw	s1,36(sp)
    2470:	02012903          	lw	s2,32(sp)
    2474:	01c12983          	lw	s3,28(sp)
    2478:	01812a03          	lw	s4,24(sp)
    247c:	01412a83          	lw	s5,20(sp)
    2480:	01012b03          	lw	s6,16(sp)
    2484:	03010113          	addi	sp,sp,48
    2488:	00008067          	ret
    248c:	0044f793          	andi	a5,s1,4
    2490:	04078063          	beqz	a5,24d0 <game_move_left+0x1c8>
    2494:	00a00793          	li	a5,10
    2498:	fcfa82e3          	beq	s5,a5,245c <game_move_left+0x154>
    249c:	01300793          	li	a5,19
    24a0:	fa87cee3          	blt	a5,s0,245c <game_move_left+0x154>
    24a4:	f60450e3          	bgez	s0,2404 <game_move_left+0xfc>
    24a8:	0024f793          	andi	a5,s1,2
    24ac:	f00790e3          	bnez	a5,23ac <game_move_left+0xa4>
    24b0:	0014f493          	andi	s1,s1,1
    24b4:	f00488e3          	beqz	s1,23c4 <game_move_left+0xbc>
    24b8:	002a8513          	addi	a0,s5,2
    24bc:	00900793          	li	a5,9
    24c0:	f8a7cee3          	blt	a5,a0,245c <game_move_left+0x154>
    24c4:	01300793          	li	a5,19
    24c8:	f887d2e3          	bge	a5,s0,244c <game_move_left+0x144>
    24cc:	f91ff06f          	j	245c <game_move_left+0x154>
    24d0:	0024f793          	andi	a5,s1,2
    24d4:	fc078ee3          	beqz	a5,24b0 <game_move_left+0x1a8>
    24d8:	001a8513          	addi	a0,s5,1
    24dc:	00900793          	li	a5,9
    24e0:	f6a7cee3          	blt	a5,a0,245c <game_move_left+0x154>
    24e4:	01300793          	li	a5,19
    24e8:	f687cae3          	blt	a5,s0,245c <game_move_left+0x154>
    24ec:	f3dff06f          	j	2428 <game_move_left+0x120>
    24f0:	00279493          	slli	s1,a5,0x2
    24f4:	00e484b3          	add	s1,s1,a4
    24f8:	00249493          	slli	s1,s1,0x2
    24fc:	00003b37          	lui	s6,0x3
    2500:	00440a13          	addi	s4,s0,4
    2504:	408484b3          	sub	s1,s1,s0
    2508:	448b0b13          	addi	s6,s6,1096 # 3448 <tetromino_shapes>
    250c:	009407b3          	add	a5,s0,s1
    2510:	00fb07b3          	add	a5,s6,a5
    2514:	0007c903          	lbu	s2,0(a5)
    2518:	00897793          	andi	a5,s2,8
    251c:	f40794e3          	bnez	a5,2464 <game_move_left+0x15c>
    2520:	00497793          	andi	a5,s2,4
    2524:	06078463          	beqz	a5,258c <game_move_left+0x284>
    2528:	00900793          	li	a5,9
    252c:	f357ece3          	bltu	a5,s5,2464 <game_move_left+0x15c>
    2530:	01300793          	li	a5,19
    2534:	f287c8e3          	blt	a5,s0,2464 <game_move_left+0x15c>
    2538:	04044463          	bltz	s0,2580 <game_move_left+0x278>
    253c:	00040593          	mv	a1,s0
    2540:	00000513          	li	a0,0
    2544:	b30fe0ef          	jal	874 <grid_is_occupied>
    2548:	f0051ee3          	bnez	a0,2464 <game_move_left+0x15c>
    254c:	00297793          	andi	a5,s2,2
    2550:	00100513          	li	a0,1
    2554:	06078e63          	beqz	a5,25d0 <game_move_left+0x2c8>
    2558:	00040593          	mv	a1,s0
    255c:	b18fe0ef          	jal	874 <grid_is_occupied>
    2560:	f00512e3          	bnez	a0,2464 <game_move_left+0x15c>
    2564:	00197913          	andi	s2,s2,1
    2568:	002a8513          	addi	a0,s5,2
    256c:	00090a63          	beqz	s2,2580 <game_move_left+0x278>
    2570:	00044863          	bltz	s0,2580 <game_move_left+0x278>
    2574:	00040593          	mv	a1,s0
    2578:	afcfe0ef          	jal	874 <grid_is_occupied>
    257c:	ee0514e3          	bnez	a0,2464 <game_move_left+0x15c>
    2580:	00140413          	addi	s0,s0,1
    2584:	f94414e3          	bne	s0,s4,250c <game_move_left+0x204>
    2588:	e4dff06f          	j	23d4 <game_move_left+0xcc>
    258c:	00297793          	andi	a5,s2,2
    2590:	02078063          	beqz	a5,25b0 <game_move_left+0x2a8>
    2594:	001a8513          	addi	a0,s5,1
    2598:	00900793          	li	a5,9
    259c:	eca7e4e3          	bltu	a5,a0,2464 <game_move_left+0x15c>
    25a0:	01300793          	li	a5,19
    25a4:	ec87c0e3          	blt	a5,s0,2464 <game_move_left+0x15c>
    25a8:	fc044ce3          	bltz	s0,2580 <game_move_left+0x278>
    25ac:	fadff06f          	j	2558 <game_move_left+0x250>
    25b0:	00197913          	andi	s2,s2,1
    25b4:	fc0906e3          	beqz	s2,2580 <game_move_left+0x278>
    25b8:	002a8513          	addi	a0,s5,2
    25bc:	00900793          	li	a5,9
    25c0:	eaa7e2e3          	bltu	a5,a0,2464 <game_move_left+0x15c>
    25c4:	01300793          	li	a5,19
    25c8:	fa87d4e3          	bge	a5,s0,2570 <game_move_left+0x268>
    25cc:	e99ff06f          	j	2464 <game_move_left+0x15c>
    25d0:	00197913          	andi	s2,s2,1
    25d4:	00200513          	li	a0,2
    25d8:	f8091ce3          	bnez	s2,2570 <game_move_left+0x268>
    25dc:	fa5ff06f          	j	2580 <game_move_left+0x278>

000025e0 <game_move_right>:
    25e0:	fd010113          	addi	sp,sp,-48
    25e4:	01312e23          	sw	s3,28(sp)
    25e8:	000039b7          	lui	s3,0x3
    25ec:	41898993          	addi	s3,s3,1048 # 3418 <current_piece>
    25f0:	01512a23          	sw	s5,20(sp)
    25f4:	0009aa83          	lw	s5,0(s3)
    25f8:	02812423          	sw	s0,40(sp)
    25fc:	01412c23          	sw	s4,24(sp)
    2600:	02112623          	sw	ra,44(sp)
    2604:	02912223          	sw	s1,36(sp)
    2608:	03212023          	sw	s2,32(sp)
    260c:	01612823          	sw	s6,16(sp)
    2610:	00900693          	li	a3,9
    2614:	001a8a13          	addi	s4,s5,1
    2618:	0049a403          	lw	s0,4(s3)
    261c:	0089a783          	lw	a5,8(s3)
    2620:	00c9a703          	lw	a4,12(s3)
    2624:	1b46e263          	bltu	a3,s4,27c8 <game_move_right+0x1e8>
    2628:	00279913          	slli	s2,a5,0x2
    262c:	00e90933          	add	s2,s2,a4
    2630:	00291913          	slli	s2,s2,0x2
    2634:	00003b37          	lui	s6,0x3
    2638:	01712623          	sw	s7,12(sp)
    263c:	01812423          	sw	s8,8(sp)
    2640:	00440b93          	addi	s7,s0,4
    2644:	40890933          	sub	s2,s2,s0
    2648:	448b0b13          	addi	s6,s6,1096 # 3448 <tetromino_shapes>
    264c:	01300c13          	li	s8,19
    2650:	012407b3          	add	a5,s0,s2
    2654:	00fb07b3          	add	a5,s6,a5
    2658:	0007c483          	lbu	s1,0(a5)
    265c:	0084f793          	andi	a5,s1,8
    2660:	10078463          	beqz	a5,2768 <game_move_right+0x188>
    2664:	0c8c4a63          	blt	s8,s0,2738 <game_move_right+0x158>
    2668:	04045a63          	bgez	s0,26bc <game_move_right+0xdc>
    266c:	0044f793          	andi	a5,s1,4
    2670:	08078063          	beqz	a5,26f0 <game_move_right+0x110>
    2674:	00800793          	li	a5,8
    2678:	0cfa8063          	beq	s5,a5,2738 <game_move_right+0x158>
    267c:	0024f793          	andi	a5,s1,2
    2680:	10078463          	beqz	a5,2788 <game_move_right+0x1a8>
    2684:	00700793          	li	a5,7
    2688:	0afa8863          	beq	s5,a5,2738 <game_move_right+0x158>
    268c:	0014f493          	andi	s1,s1,1
    2690:	00048663          	beqz	s1,269c <game_move_right+0xbc>
    2694:	00600793          	li	a5,6
    2698:	0afa8063          	beq	s5,a5,2738 <game_move_right+0x158>
    269c:	00140413          	addi	s0,s0,1
    26a0:	fb7418e3          	bne	s0,s7,2650 <game_move_right+0x70>
    26a4:	00c12b83          	lw	s7,12(sp)
    26a8:	00812c03          	lw	s8,8(sp)
    26ac:	0009a783          	lw	a5,0(s3)
    26b0:	00178793          	addi	a5,a5,1
    26b4:	00f9a023          	sw	a5,0(s3)
    26b8:	0880006f          	j	2740 <game_move_right+0x160>
    26bc:	00040593          	mv	a1,s0
    26c0:	000a0513          	mv	a0,s4
    26c4:	9b0fe0ef          	jal	874 <grid_is_occupied>
    26c8:	06051863          	bnez	a0,2738 <game_move_right+0x158>
    26cc:	0044f793          	andi	a5,s1,4
    26d0:	0c078c63          	beqz	a5,27a8 <game_move_right+0x1c8>
    26d4:	002a8513          	addi	a0,s5,2
    26d8:	00a00793          	li	a5,10
    26dc:	04f50e63          	beq	a0,a5,2738 <game_move_right+0x158>
    26e0:	f8044ee3          	bltz	s0,267c <game_move_right+0x9c>
    26e4:	00040593          	mv	a1,s0
    26e8:	98cfe0ef          	jal	874 <grid_is_occupied>
    26ec:	04051663          	bnez	a0,2738 <game_move_right+0x158>
    26f0:	0024f793          	andi	a5,s1,2
    26f4:	08078a63          	beqz	a5,2788 <game_move_right+0x1a8>
    26f8:	003a8513          	addi	a0,s5,3
    26fc:	00900793          	li	a5,9
    2700:	02a7cc63          	blt	a5,a0,2738 <game_move_right+0x158>
    2704:	f80444e3          	bltz	s0,268c <game_move_right+0xac>
    2708:	00040593          	mv	a1,s0
    270c:	968fe0ef          	jal	874 <grid_is_occupied>
    2710:	02051463          	bnez	a0,2738 <game_move_right+0x158>
    2714:	0014f493          	andi	s1,s1,1
    2718:	f80482e3          	beqz	s1,269c <game_move_right+0xbc>
    271c:	004a8513          	addi	a0,s5,4
    2720:	00900793          	li	a5,9
    2724:	00a7ca63          	blt	a5,a0,2738 <game_move_right+0x158>
    2728:	f6044ae3          	bltz	s0,269c <game_move_right+0xbc>
    272c:	00040593          	mv	a1,s0
    2730:	944fe0ef          	jal	874 <grid_is_occupied>
    2734:	f60504e3          	beqz	a0,269c <game_move_right+0xbc>
    2738:	00c12b83          	lw	s7,12(sp)
    273c:	00812c03          	lw	s8,8(sp)
    2740:	02c12083          	lw	ra,44(sp)
    2744:	02812403          	lw	s0,40(sp)
    2748:	02412483          	lw	s1,36(sp)
    274c:	02012903          	lw	s2,32(sp)
    2750:	01c12983          	lw	s3,28(sp)
    2754:	01812a03          	lw	s4,24(sp)
    2758:	01412a83          	lw	s5,20(sp)
    275c:	01012b03          	lw	s6,16(sp)
    2760:	03010113          	addi	sp,sp,48
    2764:	00008067          	ret
    2768:	0044f793          	andi	a5,s1,4
    276c:	02078e63          	beqz	a5,27a8 <game_move_right+0x1c8>
    2770:	002a8513          	addi	a0,s5,2
    2774:	00a00793          	li	a5,10
    2778:	fcf500e3          	beq	a0,a5,2738 <game_move_right+0x158>
    277c:	01300793          	li	a5,19
    2780:	f687d0e3          	bge	a5,s0,26e0 <game_move_right+0x100>
    2784:	fb5ff06f          	j	2738 <game_move_right+0x158>
    2788:	0014f493          	andi	s1,s1,1
    278c:	f00488e3          	beqz	s1,269c <game_move_right+0xbc>
    2790:	004a8513          	addi	a0,s5,4
    2794:	00900793          	li	a5,9
    2798:	faa7c0e3          	blt	a5,a0,2738 <game_move_right+0x158>
    279c:	01300793          	li	a5,19
    27a0:	f887d4e3          	bge	a5,s0,2728 <game_move_right+0x148>
    27a4:	f95ff06f          	j	2738 <game_move_right+0x158>
    27a8:	0024f793          	andi	a5,s1,2
    27ac:	fc078ee3          	beqz	a5,2788 <game_move_right+0x1a8>
    27b0:	003a8513          	addi	a0,s5,3
    27b4:	00900793          	li	a5,9
    27b8:	f8a7c0e3          	blt	a5,a0,2738 <game_move_right+0x158>
    27bc:	01300793          	li	a5,19
    27c0:	f687cce3          	blt	a5,s0,2738 <game_move_right+0x158>
    27c4:	f41ff06f          	j	2704 <game_move_right+0x124>
    27c8:	00279493          	slli	s1,a5,0x2
    27cc:	00e484b3          	add	s1,s1,a4
    27d0:	00249493          	slli	s1,s1,0x2
    27d4:	00003b37          	lui	s6,0x3
    27d8:	00440a13          	addi	s4,s0,4
    27dc:	408484b3          	sub	s1,s1,s0
    27e0:	448b0b13          	addi	s6,s6,1096 # 3448 <tetromino_shapes>
    27e4:	009407b3          	add	a5,s0,s1
    27e8:	00fb07b3          	add	a5,s6,a5
    27ec:	0007c903          	lbu	s2,0(a5)
    27f0:	00897793          	andi	a5,s2,8
    27f4:	f40796e3          	bnez	a5,2740 <game_move_right+0x160>
    27f8:	00497793          	andi	a5,s2,4
    27fc:	06078663          	beqz	a5,2868 <game_move_right+0x288>
    2800:	002a8793          	addi	a5,s5,2
    2804:	00900713          	li	a4,9
    2808:	f2f76ce3          	bltu	a4,a5,2740 <game_move_right+0x160>
    280c:	01300793          	li	a5,19
    2810:	f287c8e3          	blt	a5,s0,2740 <game_move_right+0x160>
    2814:	04044463          	bltz	s0,285c <game_move_right+0x27c>
    2818:	00040593          	mv	a1,s0
    281c:	00000513          	li	a0,0
    2820:	854fe0ef          	jal	874 <grid_is_occupied>
    2824:	f0051ee3          	bnez	a0,2740 <game_move_right+0x160>
    2828:	00297793          	andi	a5,s2,2
    282c:	00100513          	li	a0,1
    2830:	06078e63          	beqz	a5,28ac <game_move_right+0x2cc>
    2834:	00040593          	mv	a1,s0
    2838:	83cfe0ef          	jal	874 <grid_is_occupied>
    283c:	f00512e3          	bnez	a0,2740 <game_move_right+0x160>
    2840:	00197913          	andi	s2,s2,1
    2844:	004a8513          	addi	a0,s5,4
    2848:	00090a63          	beqz	s2,285c <game_move_right+0x27c>
    284c:	00044863          	bltz	s0,285c <game_move_right+0x27c>
    2850:	00040593          	mv	a1,s0
    2854:	820fe0ef          	jal	874 <grid_is_occupied>
    2858:	ee0514e3          	bnez	a0,2740 <game_move_right+0x160>
    285c:	00140413          	addi	s0,s0,1
    2860:	f94412e3          	bne	s0,s4,27e4 <game_move_right+0x204>
    2864:	e49ff06f          	j	26ac <game_move_right+0xcc>
    2868:	00297793          	andi	a5,s2,2
    286c:	02078063          	beqz	a5,288c <game_move_right+0x2ac>
    2870:	003a8513          	addi	a0,s5,3
    2874:	00900793          	li	a5,9
    2878:	eca7e4e3          	bltu	a5,a0,2740 <game_move_right+0x160>
    287c:	01300793          	li	a5,19
    2880:	ec87c0e3          	blt	a5,s0,2740 <game_move_right+0x160>
    2884:	fc044ce3          	bltz	s0,285c <game_move_right+0x27c>
    2888:	fadff06f          	j	2834 <game_move_right+0x254>
    288c:	00197913          	andi	s2,s2,1
    2890:	fc0906e3          	beqz	s2,285c <game_move_right+0x27c>
    2894:	004a8513          	addi	a0,s5,4
    2898:	00900793          	li	a5,9
    289c:	eaa7e2e3          	bltu	a5,a0,2740 <game_move_right+0x160>
    28a0:	01300793          	li	a5,19
    28a4:	fa87d4e3          	bge	a5,s0,284c <game_move_right+0x26c>
    28a8:	e99ff06f          	j	2740 <game_move_right+0x160>
    28ac:	00197913          	andi	s2,s2,1
    28b0:	00200513          	li	a0,2
    28b4:	f8091ce3          	bnez	s2,284c <game_move_right+0x26c>
    28b8:	fa5ff06f          	j	285c <game_move_right+0x27c>

000028bc <game_soft_drop>:
    28bc:	fe010113          	addi	sp,sp,-32
    28c0:	01212823          	sw	s2,16(sp)
    28c4:	00003937          	lui	s2,0x3
    28c8:	41890913          	addi	s2,s2,1048 # 3418 <current_piece>
    28cc:	01312623          	sw	s3,12(sp)
    28d0:	01412423          	sw	s4,8(sp)
    28d4:	00092983          	lw	s3,0(s2)
    28d8:	00492a03          	lw	s4,4(s2)
    28dc:	00812c23          	sw	s0,24(sp)
    28e0:	00112e23          	sw	ra,28(sp)
    28e4:	00912a23          	sw	s1,20(sp)
    28e8:	01512223          	sw	s5,4(sp)
    28ec:	00900693          	li	a3,9
    28f0:	00892783          	lw	a5,8(s2)
    28f4:	00c92703          	lw	a4,12(s2)
    28f8:	001a0413          	addi	s0,s4,1
    28fc:	1b36e863          	bltu	a3,s3,2aac <game_soft_drop+0x1f0>
    2900:	00279793          	slli	a5,a5,0x2
    2904:	00e787b3          	add	a5,a5,a4
    2908:	00003737          	lui	a4,0x3
    290c:	00279793          	slli	a5,a5,0x2
    2910:	44870713          	addi	a4,a4,1096 # 3448 <tetromino_shapes>
    2914:	01612023          	sw	s6,0(sp)
    2918:	005a0a13          	addi	s4,s4,5
    291c:	00e78b33          	add	s6,a5,a4
    2920:	01300a93          	li	s5,19
    2924:	000b4483          	lbu	s1,0(s6)
    2928:	0084f713          	andi	a4,s1,8
    292c:	12070063          	beqz	a4,2a4c <game_soft_drop+0x190>
    2930:	0e8aca63          	blt	s5,s0,2a24 <game_soft_drop+0x168>
    2934:	06045a63          	bgez	s0,29a8 <game_soft_drop+0xec>
    2938:	0044f713          	andi	a4,s1,4
    293c:	0a070063          	beqz	a4,29dc <game_soft_drop+0x120>
    2940:	00900793          	li	a5,9
    2944:	0ef98063          	beq	s3,a5,2a24 <game_soft_drop+0x168>
    2948:	0024f713          	andi	a4,s1,2
    294c:	12070063          	beqz	a4,2a6c <game_soft_drop+0x1b0>
    2950:	00800793          	li	a5,8
    2954:	0cf98863          	beq	s3,a5,2a24 <game_soft_drop+0x168>
    2958:	0014f493          	andi	s1,s1,1
    295c:	00048663          	beqz	s1,2968 <game_soft_drop+0xac>
    2960:	00700793          	li	a5,7
    2964:	0cf98063          	beq	s3,a5,2a24 <game_soft_drop+0x168>
    2968:	00140413          	addi	s0,s0,1
    296c:	001b0b13          	addi	s6,s6,1
    2970:	fb441ae3          	bne	s0,s4,2924 <game_soft_drop+0x68>
    2974:	00012b03          	lw	s6,0(sp)
    2978:	00492783          	lw	a5,4(s2)
    297c:	01c12083          	lw	ra,28(sp)
    2980:	01812403          	lw	s0,24(sp)
    2984:	00178793          	addi	a5,a5,1
    2988:	00f92223          	sw	a5,4(s2)
    298c:	01412483          	lw	s1,20(sp)
    2990:	01012903          	lw	s2,16(sp)
    2994:	00c12983          	lw	s3,12(sp)
    2998:	00812a03          	lw	s4,8(sp)
    299c:	00412a83          	lw	s5,4(sp)
    29a0:	02010113          	addi	sp,sp,32
    29a4:	00008067          	ret
    29a8:	00040593          	mv	a1,s0
    29ac:	00098513          	mv	a0,s3
    29b0:	ec5fd0ef          	jal	874 <grid_is_occupied>
    29b4:	06051863          	bnez	a0,2a24 <game_soft_drop+0x168>
    29b8:	0044f793          	andi	a5,s1,4
    29bc:	0c078863          	beqz	a5,2a8c <game_soft_drop+0x1d0>
    29c0:	00198513          	addi	a0,s3,1
    29c4:	00a00793          	li	a5,10
    29c8:	04f50e63          	beq	a0,a5,2a24 <game_soft_drop+0x168>
    29cc:	f6044ee3          	bltz	s0,2948 <game_soft_drop+0x8c>
    29d0:	00040593          	mv	a1,s0
    29d4:	ea1fd0ef          	jal	874 <grid_is_occupied>
    29d8:	04051663          	bnez	a0,2a24 <game_soft_drop+0x168>
    29dc:	0024f793          	andi	a5,s1,2
    29e0:	08078663          	beqz	a5,2a6c <game_soft_drop+0x1b0>
    29e4:	00298513          	addi	a0,s3,2
    29e8:	00900793          	li	a5,9
    29ec:	02a7cc63          	blt	a5,a0,2a24 <game_soft_drop+0x168>
    29f0:	f60444e3          	bltz	s0,2958 <game_soft_drop+0x9c>
    29f4:	00040593          	mv	a1,s0
    29f8:	e7dfd0ef          	jal	874 <grid_is_occupied>
    29fc:	02051463          	bnez	a0,2a24 <game_soft_drop+0x168>
    2a00:	0014f493          	andi	s1,s1,1
    2a04:	f60482e3          	beqz	s1,2968 <game_soft_drop+0xac>
    2a08:	00398513          	addi	a0,s3,3
    2a0c:	00900793          	li	a5,9
    2a10:	00a7ca63          	blt	a5,a0,2a24 <game_soft_drop+0x168>
    2a14:	f4044ae3          	bltz	s0,2968 <game_soft_drop+0xac>
    2a18:	00040593          	mv	a1,s0
    2a1c:	e59fd0ef          	jal	874 <grid_is_occupied>
    2a20:	f40504e3          	beqz	a0,2968 <game_soft_drop+0xac>
    2a24:	00012b03          	lw	s6,0(sp)
    2a28:	01812403          	lw	s0,24(sp)
    2a2c:	01c12083          	lw	ra,28(sp)
    2a30:	01412483          	lw	s1,20(sp)
    2a34:	01012903          	lw	s2,16(sp)
    2a38:	00c12983          	lw	s3,12(sp)
    2a3c:	00812a03          	lw	s4,8(sp)
    2a40:	00412a83          	lw	s5,4(sp)
    2a44:	02010113          	addi	sp,sp,32
    2a48:	fe9fe06f          	j	1a30 <game_lock_piece>
    2a4c:	0044f713          	andi	a4,s1,4
    2a50:	02070e63          	beqz	a4,2a8c <game_soft_drop+0x1d0>
    2a54:	00198513          	addi	a0,s3,1
    2a58:	00a00793          	li	a5,10
    2a5c:	fcf504e3          	beq	a0,a5,2a24 <game_soft_drop+0x168>
    2a60:	01300793          	li	a5,19
    2a64:	f687d4e3          	bge	a5,s0,29cc <game_soft_drop+0x110>
    2a68:	fbdff06f          	j	2a24 <game_soft_drop+0x168>
    2a6c:	0014f493          	andi	s1,s1,1
    2a70:	ee048ce3          	beqz	s1,2968 <game_soft_drop+0xac>
    2a74:	00398513          	addi	a0,s3,3
    2a78:	00900793          	li	a5,9
    2a7c:	faa7c4e3          	blt	a5,a0,2a24 <game_soft_drop+0x168>
    2a80:	01300793          	li	a5,19
    2a84:	f887d8e3          	bge	a5,s0,2a14 <game_soft_drop+0x158>
    2a88:	f9dff06f          	j	2a24 <game_soft_drop+0x168>
    2a8c:	0024f793          	andi	a5,s1,2
    2a90:	fc078ee3          	beqz	a5,2a6c <game_soft_drop+0x1b0>
    2a94:	00298513          	addi	a0,s3,2
    2a98:	00900793          	li	a5,9
    2a9c:	f8a7c4e3          	blt	a5,a0,2a24 <game_soft_drop+0x168>
    2aa0:	01300793          	li	a5,19
    2aa4:	f887c0e3          	blt	a5,s0,2a24 <game_soft_drop+0x168>
    2aa8:	f49ff06f          	j	29f0 <game_soft_drop+0x134>
    2aac:	00279493          	slli	s1,a5,0x2
    2ab0:	00e484b3          	add	s1,s1,a4
    2ab4:	000037b7          	lui	a5,0x3
    2ab8:	00249493          	slli	s1,s1,0x2
    2abc:	44878793          	addi	a5,a5,1096 # 3448 <tetromino_shapes>
    2ac0:	00f484b3          	add	s1,s1,a5
    2ac4:	005a0a13          	addi	s4,s4,5
    2ac8:	0004ca83          	lbu	s5,0(s1)
    2acc:	008af793          	andi	a5,s5,8
    2ad0:	f4079ce3          	bnez	a5,2a28 <game_soft_drop+0x16c>
    2ad4:	004af793          	andi	a5,s5,4
    2ad8:	06078863          	beqz	a5,2b48 <game_soft_drop+0x28c>
    2adc:	00198793          	addi	a5,s3,1
    2ae0:	00900713          	li	a4,9
    2ae4:	f4f762e3          	bltu	a4,a5,2a28 <game_soft_drop+0x16c>
    2ae8:	01300793          	li	a5,19
    2aec:	f287cee3          	blt	a5,s0,2a28 <game_soft_drop+0x16c>
    2af0:	04044463          	bltz	s0,2b38 <game_soft_drop+0x27c>
    2af4:	00040593          	mv	a1,s0
    2af8:	00000513          	li	a0,0
    2afc:	d79fd0ef          	jal	874 <grid_is_occupied>
    2b00:	f20514e3          	bnez	a0,2a28 <game_soft_drop+0x16c>
    2b04:	002af793          	andi	a5,s5,2
    2b08:	00100513          	li	a0,1
    2b0c:	08078063          	beqz	a5,2b8c <game_soft_drop+0x2d0>
    2b10:	00040593          	mv	a1,s0
    2b14:	d61fd0ef          	jal	874 <grid_is_occupied>
    2b18:	f00518e3          	bnez	a0,2a28 <game_soft_drop+0x16c>
    2b1c:	001afa93          	andi	s5,s5,1
    2b20:	00398513          	addi	a0,s3,3
    2b24:	000a8a63          	beqz	s5,2b38 <game_soft_drop+0x27c>
    2b28:	00044863          	bltz	s0,2b38 <game_soft_drop+0x27c>
    2b2c:	00040593          	mv	a1,s0
    2b30:	d45fd0ef          	jal	874 <grid_is_occupied>
    2b34:	ee051ae3          	bnez	a0,2a28 <game_soft_drop+0x16c>
    2b38:	00140413          	addi	s0,s0,1
    2b3c:	00148493          	addi	s1,s1,1
    2b40:	f94414e3          	bne	s0,s4,2ac8 <game_soft_drop+0x20c>
    2b44:	e35ff06f          	j	2978 <game_soft_drop+0xbc>
    2b48:	002af793          	andi	a5,s5,2
    2b4c:	02078063          	beqz	a5,2b6c <game_soft_drop+0x2b0>
    2b50:	00298513          	addi	a0,s3,2
    2b54:	00900793          	li	a5,9
    2b58:	eca7e8e3          	bltu	a5,a0,2a28 <game_soft_drop+0x16c>
    2b5c:	01300793          	li	a5,19
    2b60:	ec87c4e3          	blt	a5,s0,2a28 <game_soft_drop+0x16c>
    2b64:	fc044ae3          	bltz	s0,2b38 <game_soft_drop+0x27c>
    2b68:	fa9ff06f          	j	2b10 <game_soft_drop+0x254>
    2b6c:	001afa93          	andi	s5,s5,1
    2b70:	fc0a84e3          	beqz	s5,2b38 <game_soft_drop+0x27c>
    2b74:	00398513          	addi	a0,s3,3
    2b78:	00900793          	li	a5,9
    2b7c:	eaa7e6e3          	bltu	a5,a0,2a28 <game_soft_drop+0x16c>
    2b80:	01300793          	li	a5,19
    2b84:	fa87d2e3          	bge	a5,s0,2b28 <game_soft_drop+0x26c>
    2b88:	ea1ff06f          	j	2a28 <game_soft_drop+0x16c>
    2b8c:	001afa93          	andi	s5,s5,1
    2b90:	00200513          	li	a0,2
    2b94:	f80a9ae3          	bnez	s5,2b28 <game_soft_drop+0x26c>
    2b98:	fa1ff06f          	j	2b38 <game_soft_drop+0x27c>

00002b9c <game_step_gravity>:
    2b9c:	fe010113          	addi	sp,sp,-32
    2ba0:	01212823          	sw	s2,16(sp)
    2ba4:	00003937          	lui	s2,0x3
    2ba8:	41890913          	addi	s2,s2,1048 # 3418 <current_piece>
    2bac:	01312623          	sw	s3,12(sp)
    2bb0:	01412423          	sw	s4,8(sp)
    2bb4:	00092983          	lw	s3,0(s2)
    2bb8:	00492a03          	lw	s4,4(s2)
    2bbc:	00812c23          	sw	s0,24(sp)
    2bc0:	00112e23          	sw	ra,28(sp)
    2bc4:	00912a23          	sw	s1,20(sp)
    2bc8:	01512223          	sw	s5,4(sp)
    2bcc:	00900693          	li	a3,9
    2bd0:	00892783          	lw	a5,8(s2)
    2bd4:	00c92703          	lw	a4,12(s2)
    2bd8:	001a0413          	addi	s0,s4,1
    2bdc:	1b36e863          	bltu	a3,s3,2d8c <game_step_gravity+0x1f0>
    2be0:	00279793          	slli	a5,a5,0x2
    2be4:	00e787b3          	add	a5,a5,a4
    2be8:	00003737          	lui	a4,0x3
    2bec:	00279793          	slli	a5,a5,0x2
    2bf0:	44870713          	addi	a4,a4,1096 # 3448 <tetromino_shapes>
    2bf4:	01612023          	sw	s6,0(sp)
    2bf8:	005a0a13          	addi	s4,s4,5
    2bfc:	00e78b33          	add	s6,a5,a4
    2c00:	01300a93          	li	s5,19
    2c04:	000b4483          	lbu	s1,0(s6)
    2c08:	0084f713          	andi	a4,s1,8
    2c0c:	12070063          	beqz	a4,2d2c <game_step_gravity+0x190>
    2c10:	0e8aca63          	blt	s5,s0,2d04 <game_step_gravity+0x168>
    2c14:	06045a63          	bgez	s0,2c88 <game_step_gravity+0xec>
    2c18:	0044f713          	andi	a4,s1,4
    2c1c:	0a070063          	beqz	a4,2cbc <game_step_gravity+0x120>
    2c20:	00900793          	li	a5,9
    2c24:	0ef98063          	beq	s3,a5,2d04 <game_step_gravity+0x168>
    2c28:	0024f713          	andi	a4,s1,2
    2c2c:	12070063          	beqz	a4,2d4c <game_step_gravity+0x1b0>
    2c30:	00800793          	li	a5,8
    2c34:	0cf98863          	beq	s3,a5,2d04 <game_step_gravity+0x168>
    2c38:	0014f493          	andi	s1,s1,1
    2c3c:	00048663          	beqz	s1,2c48 <game_step_gravity+0xac>
    2c40:	00700793          	li	a5,7
    2c44:	0cf98063          	beq	s3,a5,2d04 <game_step_gravity+0x168>
    2c48:	00140413          	addi	s0,s0,1
    2c4c:	001b0b13          	addi	s6,s6,1
    2c50:	fb441ae3          	bne	s0,s4,2c04 <game_step_gravity+0x68>
    2c54:	00012b03          	lw	s6,0(sp)
    2c58:	00492783          	lw	a5,4(s2)
    2c5c:	01c12083          	lw	ra,28(sp)
    2c60:	01812403          	lw	s0,24(sp)
    2c64:	00178793          	addi	a5,a5,1
    2c68:	00f92223          	sw	a5,4(s2)
    2c6c:	01412483          	lw	s1,20(sp)
    2c70:	01012903          	lw	s2,16(sp)
    2c74:	00c12983          	lw	s3,12(sp)
    2c78:	00812a03          	lw	s4,8(sp)
    2c7c:	00412a83          	lw	s5,4(sp)
    2c80:	02010113          	addi	sp,sp,32
    2c84:	00008067          	ret
    2c88:	00040593          	mv	a1,s0
    2c8c:	00098513          	mv	a0,s3
    2c90:	be5fd0ef          	jal	874 <grid_is_occupied>
    2c94:	06051863          	bnez	a0,2d04 <game_step_gravity+0x168>
    2c98:	0044f793          	andi	a5,s1,4
    2c9c:	0c078863          	beqz	a5,2d6c <game_step_gravity+0x1d0>
    2ca0:	00198513          	addi	a0,s3,1
    2ca4:	00a00793          	li	a5,10
    2ca8:	04f50e63          	beq	a0,a5,2d04 <game_step_gravity+0x168>
    2cac:	f6044ee3          	bltz	s0,2c28 <game_step_gravity+0x8c>
    2cb0:	00040593          	mv	a1,s0
    2cb4:	bc1fd0ef          	jal	874 <grid_is_occupied>
    2cb8:	04051663          	bnez	a0,2d04 <game_step_gravity+0x168>
    2cbc:	0024f793          	andi	a5,s1,2
    2cc0:	08078663          	beqz	a5,2d4c <game_step_gravity+0x1b0>
    2cc4:	00298513          	addi	a0,s3,2
    2cc8:	00900793          	li	a5,9
    2ccc:	02a7cc63          	blt	a5,a0,2d04 <game_step_gravity+0x168>
    2cd0:	f60444e3          	bltz	s0,2c38 <game_step_gravity+0x9c>
    2cd4:	00040593          	mv	a1,s0
    2cd8:	b9dfd0ef          	jal	874 <grid_is_occupied>
    2cdc:	02051463          	bnez	a0,2d04 <game_step_gravity+0x168>
    2ce0:	0014f493          	andi	s1,s1,1
    2ce4:	f60482e3          	beqz	s1,2c48 <game_step_gravity+0xac>
    2ce8:	00398513          	addi	a0,s3,3
    2cec:	00900793          	li	a5,9
    2cf0:	00a7ca63          	blt	a5,a0,2d04 <game_step_gravity+0x168>
    2cf4:	f4044ae3          	bltz	s0,2c48 <game_step_gravity+0xac>
    2cf8:	00040593          	mv	a1,s0
    2cfc:	b79fd0ef          	jal	874 <grid_is_occupied>
    2d00:	f40504e3          	beqz	a0,2c48 <game_step_gravity+0xac>
    2d04:	00012b03          	lw	s6,0(sp)
    2d08:	01812403          	lw	s0,24(sp)
    2d0c:	01c12083          	lw	ra,28(sp)
    2d10:	01412483          	lw	s1,20(sp)
    2d14:	01012903          	lw	s2,16(sp)
    2d18:	00c12983          	lw	s3,12(sp)
    2d1c:	00812a03          	lw	s4,8(sp)
    2d20:	00412a83          	lw	s5,4(sp)
    2d24:	02010113          	addi	sp,sp,32
    2d28:	d09fe06f          	j	1a30 <game_lock_piece>
    2d2c:	0044f713          	andi	a4,s1,4
    2d30:	02070e63          	beqz	a4,2d6c <game_step_gravity+0x1d0>
    2d34:	00198513          	addi	a0,s3,1
    2d38:	00a00793          	li	a5,10
    2d3c:	fcf504e3          	beq	a0,a5,2d04 <game_step_gravity+0x168>
    2d40:	01300793          	li	a5,19
    2d44:	f687d4e3          	bge	a5,s0,2cac <game_step_gravity+0x110>
    2d48:	fbdff06f          	j	2d04 <game_step_gravity+0x168>
    2d4c:	0014f493          	andi	s1,s1,1
    2d50:	ee048ce3          	beqz	s1,2c48 <game_step_gravity+0xac>
    2d54:	00398513          	addi	a0,s3,3
    2d58:	00900793          	li	a5,9
    2d5c:	faa7c4e3          	blt	a5,a0,2d04 <game_step_gravity+0x168>
    2d60:	01300793          	li	a5,19
    2d64:	f887d8e3          	bge	a5,s0,2cf4 <game_step_gravity+0x158>
    2d68:	f9dff06f          	j	2d04 <game_step_gravity+0x168>
    2d6c:	0024f793          	andi	a5,s1,2
    2d70:	fc078ee3          	beqz	a5,2d4c <game_step_gravity+0x1b0>
    2d74:	00298513          	addi	a0,s3,2
    2d78:	00900793          	li	a5,9
    2d7c:	f8a7c4e3          	blt	a5,a0,2d04 <game_step_gravity+0x168>
    2d80:	01300793          	li	a5,19
    2d84:	f887c0e3          	blt	a5,s0,2d04 <game_step_gravity+0x168>
    2d88:	f49ff06f          	j	2cd0 <game_step_gravity+0x134>
    2d8c:	00279493          	slli	s1,a5,0x2
    2d90:	00e484b3          	add	s1,s1,a4
    2d94:	000037b7          	lui	a5,0x3
    2d98:	00249493          	slli	s1,s1,0x2
    2d9c:	44878793          	addi	a5,a5,1096 # 3448 <tetromino_shapes>
    2da0:	00f484b3          	add	s1,s1,a5
    2da4:	005a0a13          	addi	s4,s4,5
    2da8:	0004ca83          	lbu	s5,0(s1)
    2dac:	008af793          	andi	a5,s5,8
    2db0:	f4079ce3          	bnez	a5,2d08 <game_step_gravity+0x16c>
    2db4:	004af793          	andi	a5,s5,4
    2db8:	06078863          	beqz	a5,2e28 <game_step_gravity+0x28c>
    2dbc:	00198793          	addi	a5,s3,1
    2dc0:	00900713          	li	a4,9
    2dc4:	f4f762e3          	bltu	a4,a5,2d08 <game_step_gravity+0x16c>
    2dc8:	01300793          	li	a5,19
    2dcc:	f287cee3          	blt	a5,s0,2d08 <game_step_gravity+0x16c>
    2dd0:	04044463          	bltz	s0,2e18 <game_step_gravity+0x27c>
    2dd4:	00040593          	mv	a1,s0
    2dd8:	00000513          	li	a0,0
    2ddc:	a99fd0ef          	jal	874 <grid_is_occupied>
    2de0:	f20514e3          	bnez	a0,2d08 <game_step_gravity+0x16c>
    2de4:	002af793          	andi	a5,s5,2
    2de8:	00100513          	li	a0,1
    2dec:	08078063          	beqz	a5,2e6c <game_step_gravity+0x2d0>
    2df0:	00040593          	mv	a1,s0
    2df4:	a81fd0ef          	jal	874 <grid_is_occupied>
    2df8:	f00518e3          	bnez	a0,2d08 <game_step_gravity+0x16c>
    2dfc:	001afa93          	andi	s5,s5,1
    2e00:	00398513          	addi	a0,s3,3
    2e04:	000a8a63          	beqz	s5,2e18 <game_step_gravity+0x27c>
    2e08:	00044863          	bltz	s0,2e18 <game_step_gravity+0x27c>
    2e0c:	00040593          	mv	a1,s0
    2e10:	a65fd0ef          	jal	874 <grid_is_occupied>
    2e14:	ee051ae3          	bnez	a0,2d08 <game_step_gravity+0x16c>
    2e18:	00140413          	addi	s0,s0,1
    2e1c:	00148493          	addi	s1,s1,1
    2e20:	f94414e3          	bne	s0,s4,2da8 <game_step_gravity+0x20c>
    2e24:	e35ff06f          	j	2c58 <game_step_gravity+0xbc>
    2e28:	002af793          	andi	a5,s5,2
    2e2c:	02078063          	beqz	a5,2e4c <game_step_gravity+0x2b0>
    2e30:	00298513          	addi	a0,s3,2
    2e34:	00900793          	li	a5,9
    2e38:	eca7e8e3          	bltu	a5,a0,2d08 <game_step_gravity+0x16c>
    2e3c:	01300793          	li	a5,19
    2e40:	ec87c4e3          	blt	a5,s0,2d08 <game_step_gravity+0x16c>
    2e44:	fc044ae3          	bltz	s0,2e18 <game_step_gravity+0x27c>
    2e48:	fa9ff06f          	j	2df0 <game_step_gravity+0x254>
    2e4c:	001afa93          	andi	s5,s5,1
    2e50:	fc0a84e3          	beqz	s5,2e18 <game_step_gravity+0x27c>
    2e54:	00398513          	addi	a0,s3,3
    2e58:	00900793          	li	a5,9
    2e5c:	eaa7e6e3          	bltu	a5,a0,2d08 <game_step_gravity+0x16c>
    2e60:	01300793          	li	a5,19
    2e64:	fa87d2e3          	bge	a5,s0,2e08 <game_step_gravity+0x26c>
    2e68:	ea1ff06f          	j	2d08 <game_step_gravity+0x16c>
    2e6c:	001afa93          	andi	s5,s5,1
    2e70:	00200513          	li	a0,2
    2e74:	f80a9ae3          	bnez	s5,2e08 <game_step_gravity+0x26c>
    2e78:	fa1ff06f          	j	2e18 <game_step_gravity+0x27c>

00002e7c <game_update>:
    2e7c:	fe010113          	addi	sp,sp,-32
    2e80:	01212823          	sw	s2,16(sp)
    2e84:	00003937          	lui	s2,0x3
    2e88:	41890913          	addi	s2,s2,1048 # 3418 <current_piece>
    2e8c:	01312623          	sw	s3,12(sp)
    2e90:	01412423          	sw	s4,8(sp)
    2e94:	00092983          	lw	s3,0(s2)
    2e98:	00492a03          	lw	s4,4(s2)
    2e9c:	00812c23          	sw	s0,24(sp)
    2ea0:	00112e23          	sw	ra,28(sp)
    2ea4:	00912a23          	sw	s1,20(sp)
    2ea8:	01512223          	sw	s5,4(sp)
    2eac:	00900693          	li	a3,9
    2eb0:	00892783          	lw	a5,8(s2)
    2eb4:	00c92703          	lw	a4,12(s2)
    2eb8:	001a0413          	addi	s0,s4,1
    2ebc:	1b36e863          	bltu	a3,s3,306c <game_update+0x1f0>
    2ec0:	00279793          	slli	a5,a5,0x2
    2ec4:	00e787b3          	add	a5,a5,a4
    2ec8:	00003737          	lui	a4,0x3
    2ecc:	00279793          	slli	a5,a5,0x2
    2ed0:	44870713          	addi	a4,a4,1096 # 3448 <tetromino_shapes>
    2ed4:	01612023          	sw	s6,0(sp)
    2ed8:	005a0a13          	addi	s4,s4,5
    2edc:	00e78b33          	add	s6,a5,a4
    2ee0:	01300a93          	li	s5,19
    2ee4:	000b4483          	lbu	s1,0(s6)
    2ee8:	0084f713          	andi	a4,s1,8
    2eec:	12070063          	beqz	a4,300c <game_update+0x190>
    2ef0:	0e8aca63          	blt	s5,s0,2fe4 <game_update+0x168>
    2ef4:	06045a63          	bgez	s0,2f68 <game_update+0xec>
    2ef8:	0044f713          	andi	a4,s1,4
    2efc:	0a070063          	beqz	a4,2f9c <game_update+0x120>
    2f00:	00900793          	li	a5,9
    2f04:	0ef98063          	beq	s3,a5,2fe4 <game_update+0x168>
    2f08:	0024f713          	andi	a4,s1,2
    2f0c:	12070063          	beqz	a4,302c <game_update+0x1b0>
    2f10:	00800793          	li	a5,8
    2f14:	0cf98863          	beq	s3,a5,2fe4 <game_update+0x168>
    2f18:	0014f493          	andi	s1,s1,1
    2f1c:	00048663          	beqz	s1,2f28 <game_update+0xac>
    2f20:	00700793          	li	a5,7
    2f24:	0cf98063          	beq	s3,a5,2fe4 <game_update+0x168>
    2f28:	00140413          	addi	s0,s0,1
    2f2c:	001b0b13          	addi	s6,s6,1
    2f30:	fb441ae3          	bne	s0,s4,2ee4 <game_update+0x68>
    2f34:	00012b03          	lw	s6,0(sp)
    2f38:	00492783          	lw	a5,4(s2)
    2f3c:	01c12083          	lw	ra,28(sp)
    2f40:	01812403          	lw	s0,24(sp)
    2f44:	00178793          	addi	a5,a5,1
    2f48:	00f92223          	sw	a5,4(s2)
    2f4c:	01412483          	lw	s1,20(sp)
    2f50:	01012903          	lw	s2,16(sp)
    2f54:	00c12983          	lw	s3,12(sp)
    2f58:	00812a03          	lw	s4,8(sp)
    2f5c:	00412a83          	lw	s5,4(sp)
    2f60:	02010113          	addi	sp,sp,32
    2f64:	00008067          	ret
    2f68:	00040593          	mv	a1,s0
    2f6c:	00098513          	mv	a0,s3
    2f70:	905fd0ef          	jal	874 <grid_is_occupied>
    2f74:	06051863          	bnez	a0,2fe4 <game_update+0x168>
    2f78:	0044f793          	andi	a5,s1,4
    2f7c:	0c078863          	beqz	a5,304c <game_update+0x1d0>
    2f80:	00198513          	addi	a0,s3,1
    2f84:	00a00793          	li	a5,10
    2f88:	04f50e63          	beq	a0,a5,2fe4 <game_update+0x168>
    2f8c:	f6044ee3          	bltz	s0,2f08 <game_update+0x8c>
    2f90:	00040593          	mv	a1,s0
    2f94:	8e1fd0ef          	jal	874 <grid_is_occupied>
    2f98:	04051663          	bnez	a0,2fe4 <game_update+0x168>
    2f9c:	0024f793          	andi	a5,s1,2
    2fa0:	08078663          	beqz	a5,302c <game_update+0x1b0>
    2fa4:	00298513          	addi	a0,s3,2
    2fa8:	00900793          	li	a5,9
    2fac:	02a7cc63          	blt	a5,a0,2fe4 <game_update+0x168>
    2fb0:	f60444e3          	bltz	s0,2f18 <game_update+0x9c>
    2fb4:	00040593          	mv	a1,s0
    2fb8:	8bdfd0ef          	jal	874 <grid_is_occupied>
    2fbc:	02051463          	bnez	a0,2fe4 <game_update+0x168>
    2fc0:	0014f493          	andi	s1,s1,1
    2fc4:	f60482e3          	beqz	s1,2f28 <game_update+0xac>
    2fc8:	00398513          	addi	a0,s3,3
    2fcc:	00900793          	li	a5,9
    2fd0:	00a7ca63          	blt	a5,a0,2fe4 <game_update+0x168>
    2fd4:	f4044ae3          	bltz	s0,2f28 <game_update+0xac>
    2fd8:	00040593          	mv	a1,s0
    2fdc:	899fd0ef          	jal	874 <grid_is_occupied>
    2fe0:	f40504e3          	beqz	a0,2f28 <game_update+0xac>
    2fe4:	00012b03          	lw	s6,0(sp)
    2fe8:	01812403          	lw	s0,24(sp)
    2fec:	01c12083          	lw	ra,28(sp)
    2ff0:	01412483          	lw	s1,20(sp)
    2ff4:	01012903          	lw	s2,16(sp)
    2ff8:	00c12983          	lw	s3,12(sp)
    2ffc:	00812a03          	lw	s4,8(sp)
    3000:	00412a83          	lw	s5,4(sp)
    3004:	02010113          	addi	sp,sp,32
    3008:	a29fe06f          	j	1a30 <game_lock_piece>
    300c:	0044f713          	andi	a4,s1,4
    3010:	02070e63          	beqz	a4,304c <game_update+0x1d0>
    3014:	00198513          	addi	a0,s3,1
    3018:	00a00793          	li	a5,10
    301c:	fcf504e3          	beq	a0,a5,2fe4 <game_update+0x168>
    3020:	01300793          	li	a5,19
    3024:	f687d4e3          	bge	a5,s0,2f8c <game_update+0x110>
    3028:	fbdff06f          	j	2fe4 <game_update+0x168>
    302c:	0014f493          	andi	s1,s1,1
    3030:	ee048ce3          	beqz	s1,2f28 <game_update+0xac>
    3034:	00398513          	addi	a0,s3,3
    3038:	00900793          	li	a5,9
    303c:	faa7c4e3          	blt	a5,a0,2fe4 <game_update+0x168>
    3040:	01300793          	li	a5,19
    3044:	f887d8e3          	bge	a5,s0,2fd4 <game_update+0x158>
    3048:	f9dff06f          	j	2fe4 <game_update+0x168>
    304c:	0024f793          	andi	a5,s1,2
    3050:	fc078ee3          	beqz	a5,302c <game_update+0x1b0>
    3054:	00298513          	addi	a0,s3,2
    3058:	00900793          	li	a5,9
    305c:	f8a7c4e3          	blt	a5,a0,2fe4 <game_update+0x168>
    3060:	01300793          	li	a5,19
    3064:	f887c0e3          	blt	a5,s0,2fe4 <game_update+0x168>
    3068:	f49ff06f          	j	2fb0 <game_update+0x134>
    306c:	00279493          	slli	s1,a5,0x2
    3070:	00e484b3          	add	s1,s1,a4
    3074:	000037b7          	lui	a5,0x3
    3078:	00249493          	slli	s1,s1,0x2
    307c:	44878793          	addi	a5,a5,1096 # 3448 <tetromino_shapes>
    3080:	00f484b3          	add	s1,s1,a5
    3084:	005a0a13          	addi	s4,s4,5
    3088:	0004ca83          	lbu	s5,0(s1)
    308c:	008af793          	andi	a5,s5,8
    3090:	f4079ce3          	bnez	a5,2fe8 <game_update+0x16c>
    3094:	004af793          	andi	a5,s5,4
    3098:	06078863          	beqz	a5,3108 <game_update+0x28c>
    309c:	00198793          	addi	a5,s3,1
    30a0:	00900713          	li	a4,9
    30a4:	f4f762e3          	bltu	a4,a5,2fe8 <game_update+0x16c>
    30a8:	01300793          	li	a5,19
    30ac:	f287cee3          	blt	a5,s0,2fe8 <game_update+0x16c>
    30b0:	04044463          	bltz	s0,30f8 <game_update+0x27c>
    30b4:	00040593          	mv	a1,s0
    30b8:	00000513          	li	a0,0
    30bc:	fb8fd0ef          	jal	874 <grid_is_occupied>
    30c0:	f20514e3          	bnez	a0,2fe8 <game_update+0x16c>
    30c4:	002af793          	andi	a5,s5,2
    30c8:	00100513          	li	a0,1
    30cc:	08078063          	beqz	a5,314c <game_update+0x2d0>
    30d0:	00040593          	mv	a1,s0
    30d4:	fa0fd0ef          	jal	874 <grid_is_occupied>
    30d8:	f00518e3          	bnez	a0,2fe8 <game_update+0x16c>
    30dc:	001afa93          	andi	s5,s5,1
    30e0:	00398513          	addi	a0,s3,3
    30e4:	000a8a63          	beqz	s5,30f8 <game_update+0x27c>
    30e8:	00044863          	bltz	s0,30f8 <game_update+0x27c>
    30ec:	00040593          	mv	a1,s0
    30f0:	f84fd0ef          	jal	874 <grid_is_occupied>
    30f4:	ee051ae3          	bnez	a0,2fe8 <game_update+0x16c>
    30f8:	00140413          	addi	s0,s0,1
    30fc:	00148493          	addi	s1,s1,1
    3100:	f94414e3          	bne	s0,s4,3088 <game_update+0x20c>
    3104:	e35ff06f          	j	2f38 <game_update+0xbc>
    3108:	002af793          	andi	a5,s5,2
    310c:	02078063          	beqz	a5,312c <game_update+0x2b0>
    3110:	00298513          	addi	a0,s3,2
    3114:	00900793          	li	a5,9
    3118:	eca7e8e3          	bltu	a5,a0,2fe8 <game_update+0x16c>
    311c:	01300793          	li	a5,19
    3120:	ec87c4e3          	blt	a5,s0,2fe8 <game_update+0x16c>
    3124:	fc044ae3          	bltz	s0,30f8 <game_update+0x27c>
    3128:	fa9ff06f          	j	30d0 <game_update+0x254>
    312c:	001afa93          	andi	s5,s5,1
    3130:	fc0a84e3          	beqz	s5,30f8 <game_update+0x27c>
    3134:	00398513          	addi	a0,s3,3
    3138:	00900793          	li	a5,9
    313c:	eaa7e6e3          	bltu	a5,a0,2fe8 <game_update+0x16c>
    3140:	01300793          	li	a5,19
    3144:	fa87d2e3          	bge	a5,s0,30e8 <game_update+0x26c>
    3148:	ea1ff06f          	j	2fe8 <game_update+0x16c>
    314c:	001afa93          	andi	s5,s5,1
    3150:	00200513          	li	a0,2
    3154:	f80a9ae3          	bnez	s5,30e8 <game_update+0x26c>
    3158:	fa1ff06f          	j	30f8 <game_update+0x27c>

0000315c <game_draw>:
    315c:	fe010113          	addi	sp,sp,-32
    3160:	00912a23          	sw	s1,20(sp)
    3164:	000034b7          	lui	s1,0x3
    3168:	35048493          	addi	s1,s1,848 # 3350 <grid>
    316c:	01212823          	sw	s2,16(sp)
    3170:	01312623          	sw	s3,12(sp)
    3174:	01412423          	sw	s4,8(sp)
    3178:	01512223          	sw	s5,4(sp)
    317c:	00112e23          	sw	ra,28(sp)
    3180:	00812c23          	sw	s0,24(sp)
    3184:	01612023          	sw	s6,0(sp)
    3188:	00050993          	mv	s3,a0
    318c:	0c848a93          	addi	s5,s1,200
    3190:	00000913          	li	s2,0
    3194:	00a00a13          	li	s4,10
    3198:	00000413          	li	s0,0
    319c:	008487b3          	add	a5,s1,s0
    31a0:	0007c603          	lbu	a2,0(a5)
    31a4:	00040513          	mv	a0,s0
    31a8:	00090593          	mv	a1,s2
    31ac:	00140413          	addi	s0,s0,1
    31b0:	000980e7          	jalr	s3
    31b4:	ff4414e3          	bne	s0,s4,319c <game_draw+0x40>
    31b8:	00a48493          	addi	s1,s1,10
    31bc:	00190913          	addi	s2,s2,1
    31c0:	fc9a9ce3          	bne	s5,s1,3198 <game_draw+0x3c>
    31c4:	000034b7          	lui	s1,0x3
    31c8:	00003a37          	lui	s4,0x3
    31cc:	00000913          	li	s2,0
    31d0:	41848493          	addi	s1,s1,1048 # 3418 <current_piece>
    31d4:	448a0a13          	addi	s4,s4,1096 # 3448 <tetromino_shapes>
    31d8:	00300b13          	li	s6,3
    31dc:	00400a93          	li	s5,4
    31e0:	00000413          	li	s0,0
    31e4:	0084a603          	lw	a2,8(s1)
    31e8:	00c4a683          	lw	a3,12(s1)
    31ec:	408b0733          	sub	a4,s6,s0
    31f0:	00261793          	slli	a5,a2,0x2
    31f4:	00d787b3          	add	a5,a5,a3
    31f8:	00279793          	slli	a5,a5,0x2
    31fc:	00fa07b3          	add	a5,s4,a5
    3200:	012787b3          	add	a5,a5,s2
    3204:	0007c783          	lbu	a5,0(a5)
    3208:	40e7d7b3          	sra	a5,a5,a4
    320c:	0017f793          	andi	a5,a5,1
    3210:	02078263          	beqz	a5,3234 <game_draw+0xd8>
    3214:	0044a583          	lw	a1,4(s1)
    3218:	00160613          	addi	a2,a2,1
    321c:	0ff67613          	zext.b	a2,a2
    3220:	00b905b3          	add	a1,s2,a1
    3224:	0005c863          	bltz	a1,3234 <game_draw+0xd8>
    3228:	0004a503          	lw	a0,0(s1)
    322c:	00a40533          	add	a0,s0,a0
    3230:	000980e7          	jalr	s3
    3234:	00140413          	addi	s0,s0,1
    3238:	fb5416e3          	bne	s0,s5,31e4 <game_draw+0x88>
    323c:	00190913          	addi	s2,s2,1
    3240:	fa8910e3          	bne	s2,s0,31e0 <game_draw+0x84>
    3244:	01c12083          	lw	ra,28(sp)
    3248:	01812403          	lw	s0,24(sp)
    324c:	01412483          	lw	s1,20(sp)
    3250:	01012903          	lw	s2,16(sp)
    3254:	00c12983          	lw	s3,12(sp)
    3258:	00812a03          	lw	s4,8(sp)
    325c:	00412a83          	lw	s5,4(sp)
    3260:	00012b03          	lw	s6,0(sp)
    3264:	02010113          	addi	sp,sp,32
    3268:	00008067          	ret
